ARM GAS  C:\Users\Lenovo\AppData\Local\Temp\ccxaGvSt.s 			page 1


   1              		.cpu cortex-m3
   2              		.arch armv7-m
   3              		.fpu softvfp
   4              		.eabi_attribute 20, 1
   5              		.eabi_attribute 21, 1
   6              		.eabi_attribute 23, 3
   7              		.eabi_attribute 24, 1
   8              		.eabi_attribute 25, 1
   9              		.eabi_attribute 26, 1
  10              		.eabi_attribute 30, 1
  11              		.eabi_attribute 34, 1
  12              		.eabi_attribute 18, 4
  13              		.file	"Battery.c"
  14              		.text
  15              	.Ltext0:
  16              		.cfi_sections	.debug_frame
  17              		.file 1 "BBBOOM/Src/Battery.c"
  18              		.global	__aeabi_ui2f
  19              		.global	__aeabi_fmul
  20              		.global	__aeabi_f2d
  21              		.global	__aeabi_dmul
  22              		.global	__aeabi_d2f
  23              		.global	__aeabi_fdiv
  24              		.global	__aeabi_fcmpgt
  25              		.global	__aeabi_fcmple
  26              		.global	__aeabi_fcmplt
  27              		.global	__aeabi_dcmpgt
  28              		.global	__aeabi_fadd
  29              		.section	.text.Battery_Refresh,"ax",%progbits
  30              		.align	1
  31              		.global	Battery_Refresh
  32              		.syntax unified
  33              		.thumb
  34              		.thumb_func
  36              	Battery_Refresh:
  37              	.LVL0:
  38              	.LFB66:
   1:BBBOOM/Src/Battery.c **** 
   2:BBBOOM/Src/Battery.c **** #include "Battery.h"
   3:BBBOOM/Src/Battery.c **** #include "ADS1015.h"
   4:BBBOOM/Src/Battery.c **** 
   5:BBBOOM/Src/Battery.c **** BATTERY Battery[3]={0};
   6:BBBOOM/Src/Battery.c **** unsigned int ADC1_value[8];//IN 8-14
   7:BBBOOM/Src/Battery.c **** unsigned int ADC2_value[8];//IN 0-7
   8:BBBOOM/Src/Battery.c **** 
   9:BBBOOM/Src/Battery.c **** /**
  10:BBBOOM/Src/Battery.c ****  * @brief ÂàùÂßãÂåñÁîµÊ±†Êï∞ÊçÆ
  11:BBBOOM/Src/Battery.c ****  * 
  12:BBBOOM/Src/Battery.c ****  * @param  battery ÁîµÊ±†Êï∞ÊçÆÁªìÊûÑ‰ΩìÊåáÈíà
  13:BBBOOM/Src/Battery.c ****  * @param  alarm_voltage Êä•Ë≠¶ÁîµÂéã
  14:BBBOOM/Src/Battery.c ****  * @param  cut_off_voltage Êñ≠ÁîµÁîµÂéã
  15:BBBOOM/Src/Battery.c ****  * 
  16:BBBOOM/Src/Battery.c **** */
  17:BBBOOM/Src/Battery.c **** void Battery_Init(BATTERY *battery,float alarm_voltage,float cut_off_voltage)
  18:BBBOOM/Src/Battery.c **** {
  19:BBBOOM/Src/Battery.c ****     uint8_t i=0;
  20:BBBOOM/Src/Battery.c ****     for ( i = 0; i < 3; i++)
ARM GAS  C:\Users\Lenovo\AppData\Local\Temp\ccxaGvSt.s 			page 2


  21:BBBOOM/Src/Battery.c ****     {
  22:BBBOOM/Src/Battery.c ****         battery[i].Alarm_Voltage = alarm_voltage;
  23:BBBOOM/Src/Battery.c ****         battery[i].CutOff_Voltage = cut_off_voltage;
  24:BBBOOM/Src/Battery.c ****     }
  25:BBBOOM/Src/Battery.c ****      
  26:BBBOOM/Src/Battery.c ****     Battery_Refresh(battery);
  27:BBBOOM/Src/Battery.c **** }
  28:BBBOOM/Src/Battery.c **** 
  29:BBBOOM/Src/Battery.c **** /**
  30:BBBOOM/Src/Battery.c ****  * @brief Êõ¥Êñ∞ÁîµÊ±†Êï∞ÊçÆ
  31:BBBOOM/Src/Battery.c ****  * 
  32:BBBOOM/Src/Battery.c ****  * @param  battery ÁîµÊ±†Êï∞ÊçÆÁªìÊûÑ‰ΩìÊåáÈíà
  33:BBBOOM/Src/Battery.c ****  * 
  34:BBBOOM/Src/Battery.c ****  * @retval ËøîÂõûÂÄºÔºöËøîÂõûÂÄºÁöÑÊèèËø∞
  35:BBBOOM/Src/Battery.c ****  */
  36:BBBOOM/Src/Battery.c **** void Battery_Refresh(BATTERY *battery)
  37:BBBOOM/Src/Battery.c **** {
  39              		.loc 1 37 1 view -0
  40              		.cfi_startproc
  41              		@ args = 0, pretend = 0, frame = 0
  42              		@ frame_needed = 0, uses_anonymous_args = 0
  43              		.loc 1 37 1 is_stmt 0 view .LVU1
  44 0000 2DE9F843 		push	{r3, r4, r5, r6, r7, r8, r9, lr}
  45              	.LCFI0:
  46              		.cfi_def_cfa_offset 32
  47              		.cfi_offset 3, -32
  48              		.cfi_offset 4, -28
  49              		.cfi_offset 5, -24
  50              		.cfi_offset 6, -20
  51              		.cfi_offset 7, -16
  52              		.cfi_offset 8, -12
  53              		.cfi_offset 9, -8
  54              		.cfi_offset 14, -4
  55 0004 0446     		mov	r4, r0
  38:BBBOOM/Src/Battery.c ****     uint8_t i=0;
  56              		.loc 1 38 5 is_stmt 1 view .LVU2
  57              	.LVL1:
  39:BBBOOM/Src/Battery.c ****     HAL_ADCEx_Calibration_Start(&hadc1);
  58              		.loc 1 39 5 view .LVU3
  59 0006 A448     		ldr	r0, .L82+16
  60              	.LVL2:
  61              		.loc 1 39 5 is_stmt 0 view .LVU4
  62 0008 FFF7FEFF 		bl	HAL_ADCEx_Calibration_Start
  63              	.LVL3:
  40:BBBOOM/Src/Battery.c ****     for(i=0;i<8;i++)
  64              		.loc 1 40 5 is_stmt 1 view .LVU5
  65              		.loc 1 40 10 is_stmt 0 view .LVU6
  66 000c 0025     		movs	r5, #0
  67              		.loc 1 40 5 view .LVU7
  68 000e 01E0     		b	.L2
  69              	.LVL4:
  70              	.L3:
  71              		.loc 1 40 18 is_stmt 1 discriminator 2 view .LVU8
  72 0010 0135     		adds	r5, r5, #1
  73              	.LVL5:
  74              		.loc 1 40 18 is_stmt 0 discriminator 2 view .LVU9
  75 0012 EDB2     		uxtb	r5, r5
ARM GAS  C:\Users\Lenovo\AppData\Local\Temp\ccxaGvSt.s 			page 3


  76              	.LVL6:
  77              	.L2:
  78              		.loc 1 40 14 is_stmt 1 discriminator 1 view .LVU10
  79 0014 072D     		cmp	r5, #7
  80 0016 14D8     		bhi	.L78
  41:BBBOOM/Src/Battery.c **** 	{
  42:BBBOOM/Src/Battery.c ****         HAL_ADC_Start(&hadc1);//ÂêØÂä®ADCËΩ¨Êç¢ÔºåÂøÖÈ°ªÊîæÂú®forÂæ™ÁéØ‰∏≠ÔºåÂê¶ÂàôÂè™ËÉΩÈááÈõÜÁ¨¨‰
  81              		.loc 1 42 9 view .LVU11
  82 0018 9F4E     		ldr	r6, .L82+16
  83 001a 3046     		mov	r0, r6
  84 001c FFF7FEFF 		bl	HAL_ADC_Start
  85              	.LVL7:
  43:BBBOOM/Src/Battery.c ****         HAL_ADC_PollForConversion(&hadc1,100); //Áî®‰∫éËΩÆËØ¢ËΩ¨Êç¢ÔºåÊòØ‰∏Ä‰∏™ÈòªÂ°ûÂáΩÊï∞ÔºåÁ≠âÂæ
  86              		.loc 1 43 9 view .LVU12
  87 0020 6421     		movs	r1, #100
  88 0022 3046     		mov	r0, r6
  89 0024 FFF7FEFF 		bl	HAL_ADC_PollForConversion
  90              	.LVL8:
  44:BBBOOM/Src/Battery.c ****         if(HAL_IS_BIT_SET(HAL_ADC_GetState(&hadc1),HAL_ADC_STATE_REG_EOC)) //Âà§Êñ≠ËΩ¨Êç¢ÂÆåÊàêÊ†áÂ
  91              		.loc 1 44 9 view .LVU13
  92              		.loc 1 44 12 is_stmt 0 view .LVU14
  93 0028 3046     		mov	r0, r6
  94 002a FFF7FEFF 		bl	HAL_ADC_GetState
  95              	.LVL9:
  96              		.loc 1 44 11 view .LVU15
  97 002e 10F4007F 		tst	r0, #512
  98 0032 EDD0     		beq	.L3
  45:BBBOOM/Src/Battery.c ****         ADC1_value[i]=HAL_ADC_GetValue(&hadc1); //ÂºÄÂßãËØªADCÁöÑÂÄº
  99              		.loc 1 45 9 is_stmt 1 view .LVU16
 100              		.loc 1 45 23 is_stmt 0 view .LVU17
 101 0034 3046     		mov	r0, r6
 102 0036 FFF7FEFF 		bl	HAL_ADC_GetValue
 103              	.LVL10:
 104              		.loc 1 45 22 view .LVU18
 105 003a 984B     		ldr	r3, .L82+20
 106 003c 43F82500 		str	r0, [r3, r5, lsl #2]
 107 0040 E6E7     		b	.L3
 108              	.L78:
  46:BBBOOM/Src/Battery.c **** 	}
  47:BBBOOM/Src/Battery.c ****     HAL_ADC_Stop(&hadc1); //ÂÅúÊ≠¢Êì¶ÂâÇ
 109              		.loc 1 47 5 is_stmt 1 view .LVU19
 110 0042 9548     		ldr	r0, .L82+16
 111 0044 FFF7FEFF 		bl	HAL_ADC_Stop
 112              	.LVL11:
  48:BBBOOM/Src/Battery.c **** 
  49:BBBOOM/Src/Battery.c ****     HAL_ADCEx_Calibration_Start(&hadc2);    
 113              		.loc 1 49 5 view .LVU20
 114 0048 9548     		ldr	r0, .L82+24
 115 004a FFF7FEFF 		bl	HAL_ADCEx_Calibration_Start
 116              	.LVL12:
  50:BBBOOM/Src/Battery.c ****     for(i=0;i<8;i++)
 117              		.loc 1 50 5 view .LVU21
 118              		.loc 1 50 10 is_stmt 0 view .LVU22
 119 004e 0025     		movs	r5, #0
 120              		.loc 1 50 5 view .LVU23
 121 0050 0FE0     		b	.L5
 122              	.LVL13:
ARM GAS  C:\Users\Lenovo\AppData\Local\Temp\ccxaGvSt.s 			page 4


 123              	.L6:
  51:BBBOOM/Src/Battery.c **** 	{
  52:BBBOOM/Src/Battery.c ****         HAL_ADC_Start(&hadc2);//ÂêØÂä®ADCËΩ¨Êç¢ÔºåÂøÖÈ°ªÊîæÂú®forÂæ™ÁéØ‰∏≠ÔºåÂê¶ÂàôÂè™ËÉΩÈááÈõÜÁ¨¨‰
 124              		.loc 1 52 9 is_stmt 1 discriminator 3 view .LVU24
 125 0052 934E     		ldr	r6, .L82+24
 126 0054 3046     		mov	r0, r6
 127 0056 FFF7FEFF 		bl	HAL_ADC_Start
 128              	.LVL14:
  53:BBBOOM/Src/Battery.c ****         HAL_ADC_PollForConversion(&hadc2,100); //Áî®‰∫éËΩÆËØ¢ËΩ¨Êç¢ÔºåÊòØ‰∏Ä‰∏™ÈòªÂ°ûÂáΩÊï∞ÔºåÁ≠âÂæ
 129              		.loc 1 53 9 discriminator 3 view .LVU25
 130 005a 6421     		movs	r1, #100
 131 005c 3046     		mov	r0, r6
 132 005e FFF7FEFF 		bl	HAL_ADC_PollForConversion
 133              	.LVL15:
  54:BBBOOM/Src/Battery.c ****         // if(HAL_IS_BIT_SET(HAL_ADC_GetState(&hadc2),HAL_ADC_STATE_REG_EOC)) //Âà§Êñ≠ËΩ¨Êç¢ÂÆåÊàêÊ
  55:BBBOOM/Src/Battery.c ****         ADC2_value[i]=HAL_ADC_GetValue(&hadc2); //ÂºÄÂßãËØªADCÁöÑÂÄº
 134              		.loc 1 55 9 discriminator 3 view .LVU26
 135              		.loc 1 55 23 is_stmt 0 discriminator 3 view .LVU27
 136 0062 3046     		mov	r0, r6
 137 0064 FFF7FEFF 		bl	HAL_ADC_GetValue
 138              	.LVL16:
 139              		.loc 1 55 22 discriminator 3 view .LVU28
 140 0068 8E4B     		ldr	r3, .L82+28
 141 006a 43F82500 		str	r0, [r3, r5, lsl #2]
  50:BBBOOM/Src/Battery.c **** 	{
 142              		.loc 1 50 18 is_stmt 1 discriminator 3 view .LVU29
 143 006e 0135     		adds	r5, r5, #1
 144              	.LVL17:
  50:BBBOOM/Src/Battery.c **** 	{
 145              		.loc 1 50 18 is_stmt 0 discriminator 3 view .LVU30
 146 0070 EDB2     		uxtb	r5, r5
 147              	.LVL18:
 148              	.L5:
  50:BBBOOM/Src/Battery.c **** 	{
 149              		.loc 1 50 14 is_stmt 1 discriminator 1 view .LVU31
 150 0072 072D     		cmp	r5, #7
 151 0074 EDD9     		bls	.L6
  56:BBBOOM/Src/Battery.c **** 	}
  57:BBBOOM/Src/Battery.c ****     HAL_ADC_Stop(&hadc2); //ÂÅúÊ≠¢Êì¶ÂâÇ
 152              		.loc 1 57 5 view .LVU32
 153 0076 8A48     		ldr	r0, .L82+24
 154 0078 FFF7FEFF 		bl	HAL_ADC_Stop
 155              	.LVL19:
  58:BBBOOM/Src/Battery.c ****     
  59:BBBOOM/Src/Battery.c ****     //‰∏ÄÂè∑ÁîµÊ±†ÁîµËäØÁîµÂéãÂΩïÂÖ•
  60:BBBOOM/Src/Battery.c ****     for ( i = 0; i < 4; i++)
 156              		.loc 1 60 5 view .LVU33
 157              		.loc 1 60 13 is_stmt 0 view .LVU34
 158 007c 0025     		movs	r5, #0
 159              	.LVL20:
 160              	.L7:
 161              		.loc 1 60 20 is_stmt 1 discriminator 1 view .LVU35
 162 007e 032D     		cmp	r5, #3
 163 0080 1AD8     		bhi	.L79
  61:BBBOOM/Src/Battery.c ****     {
  62:BBBOOM/Src/Battery.c ****         battery[0].Cells_Voltage[5-i] = (float)ADC1_value[2+i]/4096*3.3*Resistance;
 164              		.loc 1 62 9 discriminator 3 view .LVU36
ARM GAS  C:\Users\Lenovo\AppData\Local\Temp\ccxaGvSt.s 			page 5


 165              		.loc 1 62 60 is_stmt 0 discriminator 3 view .LVU37
 166 0082 AA1C     		adds	r2, r5, #2
 167              		.loc 1 62 41 discriminator 3 view .LVU38
 168 0084 854B     		ldr	r3, .L82+20
 169 0086 53F82200 		ldr	r0, [r3, r2, lsl #2]
 170 008a FFF7FEFF 		bl	__aeabi_ui2f
 171              	.LVL21:
 172              		.loc 1 62 63 discriminator 3 view .LVU39
 173 008e 4FF06651 		mov	r1, #964689920
 174 0092 FFF7FEFF 		bl	__aeabi_fmul
 175              	.LVL22:
 176 0096 FFF7FEFF 		bl	__aeabi_f2d
 177              	.LVL23:
 178              		.loc 1 62 35 discriminator 3 view .LVU40
 179 009a C5F10506 		rsb	r6, r5, #5
 180              		.loc 1 62 72 discriminator 3 view .LVU41
 181 009e 7AA3     		adr	r3, .L82
 182 00a0 D3E90023 		ldrd	r2, [r3]
 183 00a4 FFF7FEFF 		bl	__aeabi_dmul
 184              	.LVL24:
 185 00a8 FFF7FEFF 		bl	__aeabi_d2f
 186              	.LVL25:
 187              		.loc 1 62 39 discriminator 3 view .LVU42
 188 00ac 04EB8606 		add	r6, r4, r6, lsl #2
 189 00b0 7060     		str	r0, [r6, #4]	@ float
  60:BBBOOM/Src/Battery.c ****     {
 190              		.loc 1 60 26 is_stmt 1 discriminator 3 view .LVU43
 191 00b2 0135     		adds	r5, r5, #1
 192              	.LVL26:
  60:BBBOOM/Src/Battery.c ****     {
 193              		.loc 1 60 26 is_stmt 0 discriminator 3 view .LVU44
 194 00b4 EDB2     		uxtb	r5, r5
 195              	.LVL27:
  60:BBBOOM/Src/Battery.c ****     {
 196              		.loc 1 60 26 discriminator 3 view .LVU45
 197 00b6 E2E7     		b	.L7
 198              	.L79:
  63:BBBOOM/Src/Battery.c ****     }
  64:BBBOOM/Src/Battery.c **** 
  65:BBBOOM/Src/Battery.c ****     battery[0].Cells_Voltage[1] = (float)ADC2_value[0]/4096*3.3*Resistance;
 199              		.loc 1 65 5 is_stmt 1 view .LVU46
 200              		.loc 1 65 52 is_stmt 0 view .LVU47
 201 00b8 7A4D     		ldr	r5, .L82+28
 202              	.LVL28:
 203              		.loc 1 65 35 view .LVU48
 204 00ba 2868     		ldr	r0, [r5]
 205 00bc FFF7FEFF 		bl	__aeabi_ui2f
 206              	.LVL29:
 207              		.loc 1 65 55 view .LVU49
 208 00c0 4FF06651 		mov	r1, #964689920
 209 00c4 FFF7FEFF 		bl	__aeabi_fmul
 210              	.LVL30:
 211 00c8 FFF7FEFF 		bl	__aeabi_f2d
 212              	.LVL31:
 213              		.loc 1 65 64 view .LVU50
 214 00cc 6EA3     		adr	r3, .L82
 215 00ce D3E90023 		ldrd	r2, [r3]
ARM GAS  C:\Users\Lenovo\AppData\Local\Temp\ccxaGvSt.s 			page 6


 216 00d2 FFF7FEFF 		bl	__aeabi_dmul
 217              	.LVL32:
 218 00d6 FFF7FEFF 		bl	__aeabi_d2f
 219              	.LVL33:
 220              		.loc 1 65 33 view .LVU51
 221 00da A060     		str	r0, [r4, #8]	@ float
  66:BBBOOM/Src/Battery.c ****     battery[0].Cells_Voltage[0] = (float)ADC2_value[1]/4096*3.3*Resistance;
 222              		.loc 1 66 5 is_stmt 1 view .LVU52
 223              		.loc 1 66 35 is_stmt 0 view .LVU53
 224 00dc 6868     		ldr	r0, [r5, #4]
 225 00de FFF7FEFF 		bl	__aeabi_ui2f
 226              	.LVL34:
 227              		.loc 1 66 55 view .LVU54
 228 00e2 4FF06651 		mov	r1, #964689920
 229 00e6 FFF7FEFF 		bl	__aeabi_fmul
 230              	.LVL35:
 231 00ea FFF7FEFF 		bl	__aeabi_f2d
 232              	.LVL36:
 233              		.loc 1 66 64 view .LVU55
 234 00ee 66A3     		adr	r3, .L82
 235 00f0 D3E90023 		ldrd	r2, [r3]
 236 00f4 FFF7FEFF 		bl	__aeabi_dmul
 237              	.LVL37:
 238 00f8 FFF7FEFF 		bl	__aeabi_d2f
 239              	.LVL38:
 240              		.loc 1 66 33 view .LVU56
 241 00fc 6060     		str	r0, [r4, #4]	@ float
  67:BBBOOM/Src/Battery.c ****     
  68:BBBOOM/Src/Battery.c **** 
  69:BBBOOM/Src/Battery.c ****     //‰∫åÂè∑ÁîµÊ±†ÁîµËäØÁîµÂéãÂΩïÂÖ•
  70:BBBOOM/Src/Battery.c ****     for ( i = 0; i < 6; i++)
 242              		.loc 1 70 5 is_stmt 1 view .LVU57
 243              	.LVL39:
 244              		.loc 1 70 13 is_stmt 0 view .LVU58
 245 00fe 0025     		movs	r5, #0
 246              		.loc 1 70 5 view .LVU59
 247 0100 18E0     		b	.L9
 248              	.LVL40:
 249              	.L10:
  71:BBBOOM/Src/Battery.c ****     {
  72:BBBOOM/Src/Battery.c ****         battery[1].Cells_Voltage[5-i] = (float)ADC2_value[2+i]/4095*3.3*Resistance;
 250              		.loc 1 72 9 is_stmt 1 discriminator 3 view .LVU60
 251              		.loc 1 72 60 is_stmt 0 discriminator 3 view .LVU61
 252 0102 AA1C     		adds	r2, r5, #2
 253              		.loc 1 72 41 discriminator 3 view .LVU62
 254 0104 674B     		ldr	r3, .L82+28
 255 0106 53F82200 		ldr	r0, [r3, r2, lsl #2]
 256 010a FFF7FEFF 		bl	__aeabi_ui2f
 257              	.LVL41:
 258              		.loc 1 72 63 discriminator 3 view .LVU63
 259 010e 6649     		ldr	r1, .L82+32
 260 0110 FFF7FEFF 		bl	__aeabi_fdiv
 261              	.LVL42:
 262 0114 FFF7FEFF 		bl	__aeabi_f2d
 263              	.LVL43:
 264              		.loc 1 72 35 discriminator 3 view .LVU64
 265 0118 C5F10506 		rsb	r6, r5, #5
ARM GAS  C:\Users\Lenovo\AppData\Local\Temp\ccxaGvSt.s 			page 7


 266              		.loc 1 72 72 discriminator 3 view .LVU65
 267 011c 5AA3     		adr	r3, .L82
 268 011e D3E90023 		ldrd	r2, [r3]
 269 0122 FFF7FEFF 		bl	__aeabi_dmul
 270              	.LVL44:
 271 0126 FFF7FEFF 		bl	__aeabi_d2f
 272              	.LVL45:
 273              		.loc 1 72 39 discriminator 3 view .LVU66
 274 012a 04EB8606 		add	r6, r4, r6, lsl #2
 275 012e F062     		str	r0, [r6, #44]	@ float
  70:BBBOOM/Src/Battery.c ****     {
 276              		.loc 1 70 26 is_stmt 1 discriminator 3 view .LVU67
 277 0130 0135     		adds	r5, r5, #1
 278              	.LVL46:
  70:BBBOOM/Src/Battery.c ****     {
 279              		.loc 1 70 26 is_stmt 0 discriminator 3 view .LVU68
 280 0132 EDB2     		uxtb	r5, r5
 281              	.LVL47:
 282              	.L9:
  70:BBBOOM/Src/Battery.c ****     {
 283              		.loc 1 70 20 is_stmt 1 discriminator 1 view .LVU69
 284 0134 052D     		cmp	r5, #5
 285 0136 E4D9     		bls	.L10
  73:BBBOOM/Src/Battery.c ****     }
  74:BBBOOM/Src/Battery.c **** 
  75:BBBOOM/Src/Battery.c ****     //‰∏âÂè∑ÁîµÊ±†ÁîµËäØÁîµÂéãÂΩïÂÖ•
  76:BBBOOM/Src/Battery.c ****     battery[2].Cells_Voltage[5] = (float)ADC1_value[6]/4095*3.3*Resistance;
 286              		.loc 1 76 5 view .LVU70
 287              		.loc 1 76 52 is_stmt 0 view .LVU71
 288 0138 584D     		ldr	r5, .L82+20
 289              	.LVL48:
 290              		.loc 1 76 35 view .LVU72
 291 013a A869     		ldr	r0, [r5, #24]
 292 013c FFF7FEFF 		bl	__aeabi_ui2f
 293              	.LVL49:
 294              		.loc 1 76 55 view .LVU73
 295 0140 5949     		ldr	r1, .L82+32
 296 0142 FFF7FEFF 		bl	__aeabi_fdiv
 297              	.LVL50:
 298 0146 FFF7FEFF 		bl	__aeabi_f2d
 299              	.LVL51:
 300              		.loc 1 76 64 view .LVU74
 301 014a 4FA3     		adr	r3, .L82
 302 014c D3E90023 		ldrd	r2, [r3]
 303 0150 FFF7FEFF 		bl	__aeabi_dmul
 304              	.LVL52:
 305 0154 FFF7FEFF 		bl	__aeabi_d2f
 306              	.LVL53:
 307              		.loc 1 76 33 view .LVU75
 308 0158 A066     		str	r0, [r4, #104]	@ float
  77:BBBOOM/Src/Battery.c ****     battery[2].Cells_Voltage[4] = (float)ADC1_value[7]/4095*3.3*Resistance;
 309              		.loc 1 77 5 is_stmt 1 view .LVU76
 310              		.loc 1 77 35 is_stmt 0 view .LVU77
 311 015a E869     		ldr	r0, [r5, #28]
 312 015c FFF7FEFF 		bl	__aeabi_ui2f
 313              	.LVL54:
 314              		.loc 1 77 55 view .LVU78
ARM GAS  C:\Users\Lenovo\AppData\Local\Temp\ccxaGvSt.s 			page 8


 315 0160 5149     		ldr	r1, .L82+32
 316 0162 FFF7FEFF 		bl	__aeabi_fdiv
 317              	.LVL55:
 318 0166 FFF7FEFF 		bl	__aeabi_f2d
 319              	.LVL56:
 320              		.loc 1 77 64 view .LVU79
 321 016a 47A3     		adr	r3, .L82
 322 016c D3E90023 		ldrd	r2, [r3]
 323 0170 FFF7FEFF 		bl	__aeabi_dmul
 324              	.LVL57:
 325 0174 FFF7FEFF 		bl	__aeabi_d2f
 326              	.LVL58:
 327              		.loc 1 77 33 view .LVU80
 328 0178 6066     		str	r0, [r4, #100]	@ float
  78:BBBOOM/Src/Battery.c ****     battery[2].Cells_Voltage[3] = (float)ADC1_value[0]/4095*3.3*Resistance;
 329              		.loc 1 78 5 is_stmt 1 view .LVU81
 330              		.loc 1 78 35 is_stmt 0 view .LVU82
 331 017a 2868     		ldr	r0, [r5]
 332 017c FFF7FEFF 		bl	__aeabi_ui2f
 333              	.LVL59:
 334              		.loc 1 78 55 view .LVU83
 335 0180 4949     		ldr	r1, .L82+32
 336 0182 FFF7FEFF 		bl	__aeabi_fdiv
 337              	.LVL60:
 338 0186 FFF7FEFF 		bl	__aeabi_f2d
 339              	.LVL61:
 340              		.loc 1 78 64 view .LVU84
 341 018a 3FA3     		adr	r3, .L82
 342 018c D3E90023 		ldrd	r2, [r3]
 343 0190 FFF7FEFF 		bl	__aeabi_dmul
 344              	.LVL62:
 345 0194 FFF7FEFF 		bl	__aeabi_d2f
 346              	.LVL63:
 347              		.loc 1 78 33 view .LVU85
 348 0198 2066     		str	r0, [r4, #96]	@ float
  79:BBBOOM/Src/Battery.c ****     battery[2].Cells_Voltage[2] = (float)ADC1_value[1]/4095*3.3*Resistance;
 349              		.loc 1 79 5 is_stmt 1 view .LVU86
 350              		.loc 1 79 35 is_stmt 0 view .LVU87
 351 019a 6868     		ldr	r0, [r5, #4]
 352 019c FFF7FEFF 		bl	__aeabi_ui2f
 353              	.LVL64:
 354              		.loc 1 79 55 view .LVU88
 355 01a0 4149     		ldr	r1, .L82+32
 356 01a2 FFF7FEFF 		bl	__aeabi_fdiv
 357              	.LVL65:
 358 01a6 FFF7FEFF 		bl	__aeabi_f2d
 359              	.LVL66:
 360              		.loc 1 79 64 view .LVU89
 361 01aa 37A3     		adr	r3, .L82
 362 01ac D3E90023 		ldrd	r2, [r3]
 363 01b0 FFF7FEFF 		bl	__aeabi_dmul
 364              	.LVL67:
 365 01b4 FFF7FEFF 		bl	__aeabi_d2f
 366              	.LVL68:
 367              		.loc 1 79 33 view .LVU90
 368 01b8 E065     		str	r0, [r4, #92]	@ float
  80:BBBOOM/Src/Battery.c **** 
ARM GAS  C:\Users\Lenovo\AppData\Local\Temp\ccxaGvSt.s 			page 9


  81:BBBOOM/Src/Battery.c ****     battery[2].Cells_Voltage[1] = ADS1015_Read(0);
 369              		.loc 1 81 5 is_stmt 1 view .LVU91
 370              		.loc 1 81 35 is_stmt 0 view .LVU92
 371 01ba 0020     		movs	r0, #0
 372 01bc FFF7FEFF 		bl	ADS1015_Read
 373              	.LVL69:
 374              		.loc 1 81 33 view .LVU93
 375 01c0 FFF7FEFF 		bl	__aeabi_ui2f
 376              	.LVL70:
 377 01c4 A065     		str	r0, [r4, #88]	@ float
  82:BBBOOM/Src/Battery.c ****     HAL_Delay(10);
 378              		.loc 1 82 5 is_stmt 1 view .LVU94
 379 01c6 0A20     		movs	r0, #10
 380 01c8 FFF7FEFF 		bl	HAL_Delay
 381              	.LVL71:
  83:BBBOOM/Src/Battery.c ****     battery[2].Cells_Voltage[0] = ADS1015_Read(2);
 382              		.loc 1 83 5 view .LVU95
 383              		.loc 1 83 35 is_stmt 0 view .LVU96
 384 01cc 0220     		movs	r0, #2
 385 01ce FFF7FEFF 		bl	ADS1015_Read
 386              	.LVL72:
 387              		.loc 1 83 33 view .LVU97
 388 01d2 FFF7FEFF 		bl	__aeabi_ui2f
 389              	.LVL73:
 390 01d6 6065     		str	r0, [r4, #84]	@ float
  84:BBBOOM/Src/Battery.c **** 
  85:BBBOOM/Src/Battery.c ****     //ÁîµÊ±†ÊÄªÁîµÂéã&ÁîµËäØËäÇÊï∞ÂΩïÂÖ•&Áº∫ÁîµÁä∂ÊÄÅÂΩïÂÖ•
  86:BBBOOM/Src/Battery.c ****     for ( i = 0; i < 6; i++)
 391              		.loc 1 86 5 is_stmt 1 view .LVU98
 392              	.LVL74:
 393              		.loc 1 86 13 is_stmt 0 view .LVU99
 394 01d8 0025     		movs	r5, #0
 395              		.loc 1 86 5 view .LVU100
 396 01da 7CE0     		b	.L11
 397              	.LVL75:
 398              	.L14:
  87:BBBOOM/Src/Battery.c ****     {
  88:BBBOOM/Src/Battery.c ****         if(battery[0].Cells_Voltage[i]>1)
  89:BBBOOM/Src/Battery.c ****         {
  90:BBBOOM/Src/Battery.c ****             if(battery[0].CutOff_Voltage < battery[0].Cells_Voltage[i]&&battery[0].Cells_Voltage[i]
  91:BBBOOM/Src/Battery.c ****             else if(battery[0].CutOff_Voltage >= battery[0].Cells_Voltage[i]&&battery[0].Cells_Volt
 399              		.loc 1 91 18 is_stmt 1 view .LVU101
 400              		.loc 1 91 20 is_stmt 0 view .LVU102
 401 01dc 4146     		mov	r1, r8
 402 01de 3846     		mov	r0, r7
 403 01e0 FFF7FEFF 		bl	__aeabi_fcmple
 404              	.LVL76:
 405 01e4 0028     		cmp	r0, #0
 406 01e6 00F09580 		beq	.L17
 407              		.loc 1 91 77 discriminator 1 view .LVU103
 408 01ea 3049     		ldr	r1, .L82+36
 409 01ec 3846     		mov	r0, r7
 410 01ee FFF7FEFF 		bl	__aeabi_fcmpgt
 411              	.LVL77:
 412 01f2 0028     		cmp	r0, #0
 413 01f4 00F08E80 		beq	.L17
 414              		.loc 1 91 109 is_stmt 1 discriminator 2 view .LVU104
ARM GAS  C:\Users\Lenovo\AppData\Local\Temp\ccxaGvSt.s 			page 10


 415              		.loc 1 91 134 is_stmt 0 discriminator 2 view .LVU105
 416 01f8 0223     		movs	r3, #2
 417 01fa 6370     		strb	r3, [r4, #1]
 418 01fc 8AE0     		b	.L17
 419              	.L74:
  92:BBBOOM/Src/Battery.c ****             if(battery[0].Cells_Voltage[i]<2 || battery[0].Cells_Voltage[i]>4.3)battery[0].Battery_
  93:BBBOOM/Src/Battery.c ****             else if(battery[0].Cells_Voltage[i]>4.2)battery[0].Cells_Voltage[i]=4.2;
 420              		.loc 1 93 18 is_stmt 1 view .LVU106
 421              		.loc 1 93 20 is_stmt 0 view .LVU107
 422 01fe 24A3     		adr	r3, .L82+8
 423 0200 D3E90023 		ldrd	r2, [r3]
 424 0204 4046     		mov	r0, r8
 425 0206 4946     		mov	r1, r9
 426 0208 FFF7FEFF 		bl	__aeabi_dcmpgt
 427              	.LVL78:
 428 020c 0028     		cmp	r0, #0
 429 020e 00F09680 		beq	.L23
 430              		.loc 1 93 53 is_stmt 1 discriminator 1 view .LVU108
 431              		.loc 1 93 80 is_stmt 0 discriminator 1 view .LVU109
 432 0212 04EB8603 		add	r3, r4, r6, lsl #2
 433 0216 264A     		ldr	r2, .L82+40
 434 0218 5A60     		str	r2, [r3, #4]	@ float
 435 021a 90E0     		b	.L23
 436              	.L27:
  94:BBBOOM/Src/Battery.c **** 
  95:BBBOOM/Src/Battery.c ****             battery[0].Battery_Voltage += battery[0].Cells_Voltage[i];
  96:BBBOOM/Src/Battery.c ****             battery[0].Cells_Num++;
  97:BBBOOM/Src/Battery.c ****         }
  98:BBBOOM/Src/Battery.c **** 
  99:BBBOOM/Src/Battery.c ****         if(battery[1].Cells_Voltage[i]>1)
 100:BBBOOM/Src/Battery.c ****         {
 101:BBBOOM/Src/Battery.c ****             if(battery[1].CutOff_Voltage < battery[1].Cells_Voltage[i]&&battery[1].Cells_Voltage[i]
 102:BBBOOM/Src/Battery.c ****             else if(battery[1].CutOff_Voltage >= battery[1].Cells_Voltage[i]&&battery[1].Cells_Volt
 437              		.loc 1 102 18 is_stmt 1 view .LVU110
 438              		.loc 1 102 20 is_stmt 0 view .LVU111
 439 021c 4146     		mov	r1, r8
 440 021e 3846     		mov	r0, r7
 441 0220 FFF7FEFF 		bl	__aeabi_fcmple
 442              	.LVL79:
 443 0224 0028     		cmp	r0, #0
 444 0226 00F0B180 		beq	.L30
 445              		.loc 1 102 77 discriminator 1 view .LVU112
 446 022a 2049     		ldr	r1, .L82+36
 447 022c 3846     		mov	r0, r7
 448 022e FFF7FEFF 		bl	__aeabi_fcmpgt
 449              	.LVL80:
 450 0232 0028     		cmp	r0, #0
 451 0234 00F0AA80 		beq	.L30
 452              		.loc 1 102 109 is_stmt 1 discriminator 2 view .LVU113
 453              		.loc 1 102 134 is_stmt 0 discriminator 2 view .LVU114
 454 0238 0223     		movs	r3, #2
 455 023a 84F82930 		strb	r3, [r4, #41]
 456 023e A5E0     		b	.L30
 457              	.L75:
 103:BBBOOM/Src/Battery.c ****             if(battery[1].Cells_Voltage[i]<2 || battery[1].Cells_Voltage[i]>4.3)battery[1].Battery_
 104:BBBOOM/Src/Battery.c ****             else if(battery[1].Cells_Voltage[i]>4.2)battery[1].Cells_Voltage[i]=4.2;
 458              		.loc 1 104 18 is_stmt 1 view .LVU115
ARM GAS  C:\Users\Lenovo\AppData\Local\Temp\ccxaGvSt.s 			page 11


 459              		.loc 1 104 20 is_stmt 0 view .LVU116
 460 0240 13A3     		adr	r3, .L82+8
 461 0242 D3E90023 		ldrd	r2, [r3]
 462 0246 4046     		mov	r0, r8
 463 0248 4946     		mov	r1, r9
 464 024a FFF7FEFF 		bl	__aeabi_dcmpgt
 465              	.LVL81:
 466 024e 0028     		cmp	r0, #0
 467 0250 00F0B280 		beq	.L36
 468              		.loc 1 104 53 is_stmt 1 discriminator 1 view .LVU117
 469              		.loc 1 104 80 is_stmt 0 discriminator 1 view .LVU118
 470 0254 04EB8603 		add	r3, r4, r6, lsl #2
 471 0258 154A     		ldr	r2, .L82+40
 472 025a DA62     		str	r2, [r3, #44]	@ float
 473 025c ACE0     		b	.L36
 474              	.L40:
 105:BBBOOM/Src/Battery.c **** 
 106:BBBOOM/Src/Battery.c ****             battery[1].Battery_Voltage += battery[1].Cells_Voltage[i];
 107:BBBOOM/Src/Battery.c ****             battery[1].Cells_Num++; 
 108:BBBOOM/Src/Battery.c ****         }
 109:BBBOOM/Src/Battery.c **** 
 110:BBBOOM/Src/Battery.c ****         if(battery[2].Cells_Voltage[i]>1)
 111:BBBOOM/Src/Battery.c ****         {
 112:BBBOOM/Src/Battery.c ****             if(battery[2].CutOff_Voltage < battery[2].Cells_Voltage[i]&&battery[2].Cells_Voltage[i]
 113:BBBOOM/Src/Battery.c ****             else if(battery[2].CutOff_Voltage >= battery[2].Cells_Voltage[i]&&battery[2].Cells_Volt
 475              		.loc 1 113 18 is_stmt 1 view .LVU119
 476              		.loc 1 113 20 is_stmt 0 view .LVU120
 477 025e 4146     		mov	r1, r8
 478 0260 3846     		mov	r0, r7
 479 0262 FFF7FEFF 		bl	__aeabi_fcmple
 480              	.LVL82:
 481 0266 0028     		cmp	r0, #0
 482 0268 00F0D080 		beq	.L43
 483              		.loc 1 113 77 discriminator 1 view .LVU121
 484 026c 0F49     		ldr	r1, .L82+36
 485 026e 3846     		mov	r0, r7
 486 0270 FFF7FEFF 		bl	__aeabi_fcmpgt
 487              	.LVL83:
 488 0274 0028     		cmp	r0, #0
 489 0276 00F0C980 		beq	.L43
 490              		.loc 1 113 109 is_stmt 1 discriminator 2 view .LVU122
 491              		.loc 1 113 134 is_stmt 0 discriminator 2 view .LVU123
 492 027a 0223     		movs	r3, #2
 493 027c 84F85130 		strb	r3, [r4, #81]
 494 0280 C4E0     		b	.L43
 495              	.L83:
 496 0282 00BFAFF3 		.align	3
 496      0080
 497              	.L82:
 498 0288 66666666 		.word	1717986918
 499 028c 66660A40 		.word	1074423398
 500 0290 CDCCCCCC 		.word	-858993459
 501 0294 CCCC1040 		.word	1074842828
 502 0298 00000000 		.word	hadc1
 503 029c 00000000 		.word	ADC1_value
 504 02a0 00000000 		.word	hadc2
 505 02a4 00000000 		.word	ADC2_value
ARM GAS  C:\Users\Lenovo\AppData\Local\Temp\ccxaGvSt.s 			page 12


 506 02a8 00F07F45 		.word	1166012416
 507 02ac 00004040 		.word	1077936128
 508 02b0 66668640 		.word	1082549862
 509              	.L46:
 114:BBBOOM/Src/Battery.c ****             if(battery[2].Cells_Voltage[i]<2 || battery[2].Cells_Voltage[i]>4.3)battery[2].Battery_
 510              		.loc 1 114 81 is_stmt 1 discriminator 3 view .LVU124
 511              		.loc 1 114 106 is_stmt 0 discriminator 3 view .LVU125
 512 02b4 0523     		movs	r3, #5
 513 02b6 84F85130 		strb	r3, [r4, #81]
 514              	.L49:
 115:BBBOOM/Src/Battery.c ****             else if(battery[2].Cells_Voltage[i]>4.2)battery[2].Cells_Voltage[i]=4.2;
 116:BBBOOM/Src/Battery.c ****             
 117:BBBOOM/Src/Battery.c ****             battery[2].Battery_Voltage += battery[2].Cells_Voltage[i];
 515              		.loc 1 117 13 is_stmt 1 view .LVU126
 516              		.loc 1 117 67 is_stmt 0 view .LVU127
 517 02ba 04EB8606 		add	r6, r4, r6, lsl #2
 518              		.loc 1 117 40 view .LVU128
 519 02be 716D     		ldr	r1, [r6, #84]	@ float
 520 02c0 E06E     		ldr	r0, [r4, #108]	@ float
 521 02c2 FFF7FEFF 		bl	__aeabi_fadd
 522              	.LVL84:
 523 02c6 E066     		str	r0, [r4, #108]	@ float
 118:BBBOOM/Src/Battery.c ****             battery[2].Cells_Num++;
 524              		.loc 1 118 13 is_stmt 1 view .LVU129
 525              		.loc 1 118 23 is_stmt 0 view .LVU130
 526 02c8 94F85030 		ldrb	r3, [r4, #80]	@ zero_extendqisi2
 527              		.loc 1 118 33 view .LVU131
 528 02cc 0133     		adds	r3, r3, #1
 529 02ce 84F85030 		strb	r3, [r4, #80]
 530              	.L38:
  86:BBBOOM/Src/Battery.c ****     {
 531              		.loc 1 86 26 is_stmt 1 discriminator 2 view .LVU132
 532 02d2 0135     		adds	r5, r5, #1
 533              	.LVL85:
  86:BBBOOM/Src/Battery.c ****     {
 534              		.loc 1 86 26 is_stmt 0 discriminator 2 view .LVU133
 535 02d4 EDB2     		uxtb	r5, r5
 536              	.LVL86:
 537              	.L11:
  86:BBBOOM/Src/Battery.c ****     {
 538              		.loc 1 86 20 is_stmt 1 discriminator 1 view .LVU134
 539 02d6 052D     		cmp	r5, #5
 540 02d8 00F2BC80 		bhi	.L80
  88:BBBOOM/Src/Battery.c ****         {
 541              		.loc 1 88 9 view .LVU135
  88:BBBOOM/Src/Battery.c ****         {
 542              		.loc 1 88 36 is_stmt 0 view .LVU136
 543 02dc 2E46     		mov	r6, r5
 544 02de 04EB8503 		add	r3, r4, r5, lsl #2
 545 02e2 5F68     		ldr	r7, [r3, #4]	@ float
  88:BBBOOM/Src/Battery.c ****         {
 546              		.loc 1 88 11 view .LVU137
 547 02e4 4FF07E51 		mov	r1, #1065353216
 548 02e8 3846     		mov	r0, r7
 549 02ea FFF7FEFF 		bl	__aeabi_fcmpgt
 550              	.LVL87:
 551 02ee 80B3     		cbz	r0, .L12
ARM GAS  C:\Users\Lenovo\AppData\Local\Temp\ccxaGvSt.s 			page 13


  90:BBBOOM/Src/Battery.c ****             else if(battery[0].CutOff_Voltage >= battery[0].Cells_Voltage[i]&&battery[0].Cells_Volt
 552              		.loc 1 90 13 is_stmt 1 view .LVU138
  90:BBBOOM/Src/Battery.c ****             else if(battery[0].CutOff_Voltage >= battery[0].Cells_Voltage[i]&&battery[0].Cells_Volt
 553              		.loc 1 90 26 is_stmt 0 view .LVU139
 554 02f0 D4F82480 		ldr	r8, [r4, #36]	@ float
  90:BBBOOM/Src/Battery.c ****             else if(battery[0].CutOff_Voltage >= battery[0].Cells_Voltage[i]&&battery[0].Cells_Volt
 555              		.loc 1 90 15 view .LVU140
 556 02f4 4146     		mov	r1, r8
 557 02f6 3846     		mov	r0, r7
 558 02f8 FFF7FEFF 		bl	__aeabi_fcmpgt
 559              	.LVL88:
 560 02fc 0028     		cmp	r0, #0
 561 02fe 3FF46DAF 		beq	.L14
  90:BBBOOM/Src/Battery.c ****             else if(battery[0].CutOff_Voltage >= battery[0].Cells_Voltage[i]&&battery[0].Cells_Volt
 562              		.loc 1 90 71 discriminator 1 view .LVU141
 563 0302 216A     		ldr	r1, [r4, #32]	@ float
 564 0304 3846     		mov	r0, r7
 565 0306 FFF7FEFF 		bl	__aeabi_fcmple
 566              	.LVL89:
 567 030a 0028     		cmp	r0, #0
 568 030c 3FF466AF 		beq	.L14
  90:BBBOOM/Src/Battery.c ****             else if(battery[0].CutOff_Voltage >= battery[0].Cells_Voltage[i]&&battery[0].Cells_Volt
 569              		.loc 1 90 128 is_stmt 1 discriminator 2 view .LVU142
  90:BBBOOM/Src/Battery.c ****             else if(battery[0].CutOff_Voltage >= battery[0].Cells_Voltage[i]&&battery[0].Cells_Volt
 570              		.loc 1 90 153 is_stmt 0 discriminator 2 view .LVU143
 571 0310 0323     		movs	r3, #3
 572 0312 6370     		strb	r3, [r4, #1]
 573              	.L17:
  92:BBBOOM/Src/Battery.c ****             else if(battery[0].Cells_Voltage[i]>4.2)battery[0].Cells_Voltage[i]=4.2;
 574              		.loc 1 92 13 is_stmt 1 view .LVU144
  92:BBBOOM/Src/Battery.c ****             else if(battery[0].Cells_Voltage[i]>4.2)battery[0].Cells_Voltage[i]=4.2;
 575              		.loc 1 92 15 is_stmt 0 view .LVU145
 576 0314 4FF08041 		mov	r1, #1073741824
 577 0318 3846     		mov	r0, r7
 578 031a FFF7FEFF 		bl	__aeabi_fcmplt
 579              	.LVL90:
 580 031e 60B9     		cbnz	r0, .L20
  92:BBBOOM/Src/Battery.c ****             else if(battery[0].Cells_Voltage[i]>4.2)battery[0].Cells_Voltage[i]=4.2;
 581              		.loc 1 92 73 discriminator 2 view .LVU146
 582 0320 3846     		mov	r0, r7
 583 0322 FFF7FEFF 		bl	__aeabi_f2d
 584              	.LVL91:
 585 0326 8046     		mov	r8, r0
 586 0328 8946     		mov	r9, r1
  92:BBBOOM/Src/Battery.c ****             else if(battery[0].Cells_Voltage[i]>4.2)battery[0].Cells_Voltage[i]=4.2;
 587              		.loc 1 92 46 discriminator 2 view .LVU147
 588 032a 57A3     		adr	r3, .L84
 589 032c D3E90023 		ldrd	r2, [r3]
 590 0330 FFF7FEFF 		bl	__aeabi_dcmpgt
 591              	.LVL92:
 592 0334 0028     		cmp	r0, #0
 593 0336 3FF462AF 		beq	.L74
 594              	.L20:
  92:BBBOOM/Src/Battery.c ****             else if(battery[0].Cells_Voltage[i]>4.2)battery[0].Cells_Voltage[i]=4.2;
 595              		.loc 1 92 81 is_stmt 1 discriminator 3 view .LVU148
  92:BBBOOM/Src/Battery.c ****             else if(battery[0].Cells_Voltage[i]>4.2)battery[0].Cells_Voltage[i]=4.2;
 596              		.loc 1 92 106 is_stmt 0 discriminator 3 view .LVU149
ARM GAS  C:\Users\Lenovo\AppData\Local\Temp\ccxaGvSt.s 			page 14


 597 033a 0523     		movs	r3, #5
 598 033c 6370     		strb	r3, [r4, #1]
 599              	.L23:
  95:BBBOOM/Src/Battery.c ****             battery[0].Cells_Num++;
 600              		.loc 1 95 13 is_stmt 1 view .LVU150
  95:BBBOOM/Src/Battery.c ****             battery[0].Cells_Num++;
 601              		.loc 1 95 67 is_stmt 0 view .LVU151
 602 033e 04EB8603 		add	r3, r4, r6, lsl #2
  95:BBBOOM/Src/Battery.c ****             battery[0].Cells_Num++;
 603              		.loc 1 95 40 view .LVU152
 604 0342 5968     		ldr	r1, [r3, #4]	@ float
 605 0344 E069     		ldr	r0, [r4, #28]	@ float
 606 0346 FFF7FEFF 		bl	__aeabi_fadd
 607              	.LVL93:
 608 034a E061     		str	r0, [r4, #28]	@ float
  96:BBBOOM/Src/Battery.c ****         }
 609              		.loc 1 96 13 is_stmt 1 view .LVU153
  96:BBBOOM/Src/Battery.c ****         }
 610              		.loc 1 96 23 is_stmt 0 view .LVU154
 611 034c 2378     		ldrb	r3, [r4]	@ zero_extendqisi2
  96:BBBOOM/Src/Battery.c ****         }
 612              		.loc 1 96 33 view .LVU155
 613 034e 0133     		adds	r3, r3, #1
 614 0350 2370     		strb	r3, [r4]
 615              	.L12:
  99:BBBOOM/Src/Battery.c ****         {
 616              		.loc 1 99 9 is_stmt 1 view .LVU156
  99:BBBOOM/Src/Battery.c ****         {
 617              		.loc 1 99 36 is_stmt 0 view .LVU157
 618 0352 04EB8603 		add	r3, r4, r6, lsl #2
 619 0356 DF6A     		ldr	r7, [r3, #44]	@ float
  99:BBBOOM/Src/Battery.c ****         {
 620              		.loc 1 99 11 view .LVU158
 621 0358 4FF07E51 		mov	r1, #1065353216
 622 035c 3846     		mov	r0, r7
 623 035e FFF7FEFF 		bl	__aeabi_fcmpgt
 624              	.LVL94:
 625 0362 0028     		cmp	r0, #0
 626 0364 34D0     		beq	.L25
 101:BBBOOM/Src/Battery.c ****             else if(battery[1].CutOff_Voltage >= battery[1].Cells_Voltage[i]&&battery[1].Cells_Volt
 627              		.loc 1 101 13 is_stmt 1 view .LVU159
 101:BBBOOM/Src/Battery.c ****             else if(battery[1].CutOff_Voltage >= battery[1].Cells_Voltage[i]&&battery[1].Cells_Volt
 628              		.loc 1 101 26 is_stmt 0 view .LVU160
 629 0366 D4F84C80 		ldr	r8, [r4, #76]	@ float
 101:BBBOOM/Src/Battery.c ****             else if(battery[1].CutOff_Voltage >= battery[1].Cells_Voltage[i]&&battery[1].Cells_Volt
 630              		.loc 1 101 15 view .LVU161
 631 036a 4146     		mov	r1, r8
 632 036c 3846     		mov	r0, r7
 633 036e FFF7FEFF 		bl	__aeabi_fcmpgt
 634              	.LVL95:
 635 0372 0028     		cmp	r0, #0
 636 0374 3FF452AF 		beq	.L27
 101:BBBOOM/Src/Battery.c ****             else if(battery[1].CutOff_Voltage >= battery[1].Cells_Voltage[i]&&battery[1].Cells_Volt
 637              		.loc 1 101 71 discriminator 1 view .LVU162
 638 0378 A16C     		ldr	r1, [r4, #72]	@ float
 639 037a 3846     		mov	r0, r7
 640 037c FFF7FEFF 		bl	__aeabi_fcmple
ARM GAS  C:\Users\Lenovo\AppData\Local\Temp\ccxaGvSt.s 			page 15


 641              	.LVL96:
 642 0380 0028     		cmp	r0, #0
 643 0382 3FF44BAF 		beq	.L27
 101:BBBOOM/Src/Battery.c ****             else if(battery[1].CutOff_Voltage >= battery[1].Cells_Voltage[i]&&battery[1].Cells_Volt
 644              		.loc 1 101 128 is_stmt 1 discriminator 2 view .LVU163
 101:BBBOOM/Src/Battery.c ****             else if(battery[1].CutOff_Voltage >= battery[1].Cells_Voltage[i]&&battery[1].Cells_Volt
 645              		.loc 1 101 153 is_stmt 0 discriminator 2 view .LVU164
 646 0386 0323     		movs	r3, #3
 647 0388 84F82930 		strb	r3, [r4, #41]
 648              	.L30:
 103:BBBOOM/Src/Battery.c ****             else if(battery[1].Cells_Voltage[i]>4.2)battery[1].Cells_Voltage[i]=4.2;
 649              		.loc 1 103 13 is_stmt 1 view .LVU165
 103:BBBOOM/Src/Battery.c ****             else if(battery[1].Cells_Voltage[i]>4.2)battery[1].Cells_Voltage[i]=4.2;
 650              		.loc 1 103 15 is_stmt 0 view .LVU166
 651 038c 4FF08041 		mov	r1, #1073741824
 652 0390 3846     		mov	r0, r7
 653 0392 FFF7FEFF 		bl	__aeabi_fcmplt
 654              	.LVL97:
 655 0396 60B9     		cbnz	r0, .L33
 103:BBBOOM/Src/Battery.c ****             else if(battery[1].Cells_Voltage[i]>4.2)battery[1].Cells_Voltage[i]=4.2;
 656              		.loc 1 103 73 discriminator 2 view .LVU167
 657 0398 3846     		mov	r0, r7
 658 039a FFF7FEFF 		bl	__aeabi_f2d
 659              	.LVL98:
 660 039e 8046     		mov	r8, r0
 661 03a0 8946     		mov	r9, r1
 103:BBBOOM/Src/Battery.c ****             else if(battery[1].Cells_Voltage[i]>4.2)battery[1].Cells_Voltage[i]=4.2;
 662              		.loc 1 103 46 discriminator 2 view .LVU168
 663 03a2 39A3     		adr	r3, .L84
 664 03a4 D3E90023 		ldrd	r2, [r3]
 665 03a8 FFF7FEFF 		bl	__aeabi_dcmpgt
 666              	.LVL99:
 667 03ac 0028     		cmp	r0, #0
 668 03ae 3FF447AF 		beq	.L75
 669              	.L33:
 103:BBBOOM/Src/Battery.c ****             else if(battery[1].Cells_Voltage[i]>4.2)battery[1].Cells_Voltage[i]=4.2;
 670              		.loc 1 103 81 is_stmt 1 discriminator 3 view .LVU169
 103:BBBOOM/Src/Battery.c ****             else if(battery[1].Cells_Voltage[i]>4.2)battery[1].Cells_Voltage[i]=4.2;
 671              		.loc 1 103 106 is_stmt 0 discriminator 3 view .LVU170
 672 03b2 0523     		movs	r3, #5
 673 03b4 84F82930 		strb	r3, [r4, #41]
 674              	.L36:
 106:BBBOOM/Src/Battery.c ****             battery[1].Cells_Num++; 
 675              		.loc 1 106 13 is_stmt 1 view .LVU171
 106:BBBOOM/Src/Battery.c ****             battery[1].Cells_Num++; 
 676              		.loc 1 106 67 is_stmt 0 view .LVU172
 677 03b8 04EB8603 		add	r3, r4, r6, lsl #2
 106:BBBOOM/Src/Battery.c ****             battery[1].Cells_Num++; 
 678              		.loc 1 106 40 view .LVU173
 679 03bc D96A     		ldr	r1, [r3, #44]	@ float
 680 03be 606C     		ldr	r0, [r4, #68]	@ float
 681 03c0 FFF7FEFF 		bl	__aeabi_fadd
 682              	.LVL100:
 683 03c4 6064     		str	r0, [r4, #68]	@ float
 107:BBBOOM/Src/Battery.c ****         }
 684              		.loc 1 107 13 is_stmt 1 view .LVU174
 107:BBBOOM/Src/Battery.c ****         }
ARM GAS  C:\Users\Lenovo\AppData\Local\Temp\ccxaGvSt.s 			page 16


 685              		.loc 1 107 23 is_stmt 0 view .LVU175
 686 03c6 94F82830 		ldrb	r3, [r4, #40]	@ zero_extendqisi2
 107:BBBOOM/Src/Battery.c ****         }
 687              		.loc 1 107 33 view .LVU176
 688 03ca 0133     		adds	r3, r3, #1
 689 03cc 84F82830 		strb	r3, [r4, #40]
 690              	.L25:
 110:BBBOOM/Src/Battery.c ****         {
 691              		.loc 1 110 9 is_stmt 1 view .LVU177
 110:BBBOOM/Src/Battery.c ****         {
 692              		.loc 1 110 36 is_stmt 0 view .LVU178
 693 03d0 04EB8603 		add	r3, r4, r6, lsl #2
 694 03d4 5F6D     		ldr	r7, [r3, #84]	@ float
 110:BBBOOM/Src/Battery.c ****         {
 695              		.loc 1 110 11 view .LVU179
 696 03d6 4FF07E51 		mov	r1, #1065353216
 697 03da 3846     		mov	r0, r7
 698 03dc FFF7FEFF 		bl	__aeabi_fcmpgt
 699              	.LVL101:
 700 03e0 0028     		cmp	r0, #0
 701 03e2 3FF476AF 		beq	.L38
 112:BBBOOM/Src/Battery.c ****             else if(battery[2].CutOff_Voltage >= battery[2].Cells_Voltage[i]&&battery[2].Cells_Volt
 702              		.loc 1 112 13 is_stmt 1 view .LVU180
 112:BBBOOM/Src/Battery.c ****             else if(battery[2].CutOff_Voltage >= battery[2].Cells_Voltage[i]&&battery[2].Cells_Volt
 703              		.loc 1 112 26 is_stmt 0 view .LVU181
 704 03e6 D4F87480 		ldr	r8, [r4, #116]	@ float
 112:BBBOOM/Src/Battery.c ****             else if(battery[2].CutOff_Voltage >= battery[2].Cells_Voltage[i]&&battery[2].Cells_Volt
 705              		.loc 1 112 15 view .LVU182
 706 03ea 4146     		mov	r1, r8
 707 03ec 3846     		mov	r0, r7
 708 03ee FFF7FEFF 		bl	__aeabi_fcmpgt
 709              	.LVL102:
 710 03f2 0028     		cmp	r0, #0
 711 03f4 3FF433AF 		beq	.L40
 112:BBBOOM/Src/Battery.c ****             else if(battery[2].CutOff_Voltage >= battery[2].Cells_Voltage[i]&&battery[2].Cells_Volt
 712              		.loc 1 112 71 discriminator 1 view .LVU183
 713 03f8 216F     		ldr	r1, [r4, #112]	@ float
 714 03fa 3846     		mov	r0, r7
 715 03fc FFF7FEFF 		bl	__aeabi_fcmple
 716              	.LVL103:
 717 0400 0028     		cmp	r0, #0
 718 0402 3FF42CAF 		beq	.L40
 112:BBBOOM/Src/Battery.c ****             else if(battery[2].CutOff_Voltage >= battery[2].Cells_Voltage[i]&&battery[2].Cells_Volt
 719              		.loc 1 112 128 is_stmt 1 discriminator 2 view .LVU184
 112:BBBOOM/Src/Battery.c ****             else if(battery[2].CutOff_Voltage >= battery[2].Cells_Voltage[i]&&battery[2].Cells_Volt
 720              		.loc 1 112 153 is_stmt 0 discriminator 2 view .LVU185
 721 0406 0323     		movs	r3, #3
 722 0408 84F85130 		strb	r3, [r4, #81]
 723              	.L43:
 114:BBBOOM/Src/Battery.c ****             else if(battery[2].Cells_Voltage[i]>4.2)battery[2].Cells_Voltage[i]=4.2;
 724              		.loc 1 114 13 is_stmt 1 view .LVU186
 114:BBBOOM/Src/Battery.c ****             else if(battery[2].Cells_Voltage[i]>4.2)battery[2].Cells_Voltage[i]=4.2;
 725              		.loc 1 114 15 is_stmt 0 view .LVU187
 726 040c 4FF08041 		mov	r1, #1073741824
 727 0410 3846     		mov	r0, r7
 728 0412 FFF7FEFF 		bl	__aeabi_fcmplt
 729              	.LVL104:
ARM GAS  C:\Users\Lenovo\AppData\Local\Temp\ccxaGvSt.s 			page 17


 730 0416 0028     		cmp	r0, #0
 731 0418 7FF44CAF 		bne	.L46
 114:BBBOOM/Src/Battery.c ****             else if(battery[2].Cells_Voltage[i]>4.2)battery[2].Cells_Voltage[i]=4.2;
 732              		.loc 1 114 73 discriminator 2 view .LVU188
 733 041c 3846     		mov	r0, r7
 734 041e FFF7FEFF 		bl	__aeabi_f2d
 735              	.LVL105:
 736 0422 8046     		mov	r8, r0
 737 0424 8946     		mov	r9, r1
 114:BBBOOM/Src/Battery.c ****             else if(battery[2].Cells_Voltage[i]>4.2)battery[2].Cells_Voltage[i]=4.2;
 738              		.loc 1 114 46 discriminator 2 view .LVU189
 739 0426 18A3     		adr	r3, .L84
 740 0428 D3E90023 		ldrd	r2, [r3]
 741 042c FFF7FEFF 		bl	__aeabi_dcmpgt
 742              	.LVL106:
 743 0430 0028     		cmp	r0, #0
 744 0432 7FF43FAF 		bne	.L46
 115:BBBOOM/Src/Battery.c ****             
 745              		.loc 1 115 18 is_stmt 1 view .LVU190
 115:BBBOOM/Src/Battery.c ****             
 746              		.loc 1 115 20 is_stmt 0 view .LVU191
 747 0436 16A3     		adr	r3, .L84+8
 748 0438 D3E90023 		ldrd	r2, [r3]
 749 043c 4046     		mov	r0, r8
 750 043e 4946     		mov	r1, r9
 751 0440 FFF7FEFF 		bl	__aeabi_dcmpgt
 752              	.LVL107:
 753 0444 0028     		cmp	r0, #0
 754 0446 3FF438AF 		beq	.L49
 115:BBBOOM/Src/Battery.c ****             
 755              		.loc 1 115 53 is_stmt 1 discriminator 1 view .LVU192
 115:BBBOOM/Src/Battery.c ****             
 756              		.loc 1 115 80 is_stmt 0 discriminator 1 view .LVU193
 757 044a 04EB8603 		add	r3, r4, r6, lsl #2
 758 044e 124A     		ldr	r2, .L84+16
 759 0450 5A65     		str	r2, [r3, #84]	@ float
 760 0452 32E7     		b	.L49
 761              	.L80:
 119:BBBOOM/Src/Battery.c ****         }
 120:BBBOOM/Src/Battery.c ****     }
 121:BBBOOM/Src/Battery.c **** 
 122:BBBOOM/Src/Battery.c ****     //ÁîµÊ±†Áä∂ÊÄÅÂΩïÂÖ•
 123:BBBOOM/Src/Battery.c ****     for ( i = 0; i < 3; i++)
 762              		.loc 1 123 13 view .LVU194
 763 0454 0023     		movs	r3, #0
 764 0456 01E0     		b	.L52
 765              	.LVL108:
 766              	.L54:
 767              		.loc 1 123 26 is_stmt 1 discriminator 2 view .LVU195
 768 0458 0133     		adds	r3, r3, #1
 769              	.LVL109:
 770              		.loc 1 123 26 is_stmt 0 discriminator 2 view .LVU196
 771 045a DBB2     		uxtb	r3, r3
 772              	.LVL110:
 773              	.L52:
 774              		.loc 1 123 20 is_stmt 1 discriminator 1 view .LVU197
 775 045c 022B     		cmp	r3, #2
ARM GAS  C:\Users\Lenovo\AppData\Local\Temp\ccxaGvSt.s 			page 18


 776 045e 0ED8     		bhi	.L81
 124:BBBOOM/Src/Battery.c ****     {
 125:BBBOOM/Src/Battery.c ****         if(battery[i].Cells_Num==0)battery[i].Battery_State = NUL;
 777              		.loc 1 125 9 view .LVU198
 778              		.loc 1 125 19 is_stmt 0 view .LVU199
 779 0460 03EB8302 		add	r2, r3, r3, lsl #2
 780 0464 04EBC201 		add	r1, r4, r2, lsl #3
 781              		.loc 1 125 22 view .LVU200
 782 0468 14F83220 		ldrb	r2, [r4, r2, lsl #3]	@ zero_extendqisi2
 783              		.loc 1 125 11 view .LVU201
 784 046c 0AB9     		cbnz	r2, .L53
 785              		.loc 1 125 36 is_stmt 1 discriminator 1 view .LVU202
 786              		.loc 1 125 61 is_stmt 0 discriminator 1 view .LVU203
 787 046e 0422     		movs	r2, #4
 788 0470 4A70     		strb	r2, [r1, #1]
 789              	.L53:
 126:BBBOOM/Src/Battery.c ****         
 127:BBBOOM/Src/Battery.c ****         if(battery[i].Battery_State==0)battery[i].Battery_State = READY;
 790              		.loc 1 127 9 is_stmt 1 view .LVU204
 791              		.loc 1 127 22 is_stmt 0 view .LVU205
 792 0472 4A78     		ldrb	r2, [r1, #1]	@ zero_extendqisi2
 793              		.loc 1 127 11 view .LVU206
 794 0474 002A     		cmp	r2, #0
 795 0476 EFD1     		bne	.L54
 796              		.loc 1 127 40 is_stmt 1 discriminator 1 view .LVU207
 797              		.loc 1 127 65 is_stmt 0 discriminator 1 view .LVU208
 798 0478 0122     		movs	r2, #1
 799 047a 4A70     		strb	r2, [r1, #1]
 800 047c ECE7     		b	.L54
 801              	.L81:
 128:BBBOOM/Src/Battery.c ****     }
 129:BBBOOM/Src/Battery.c **** }
 802              		.loc 1 129 1 view .LVU209
 803 047e BDE8F883 		pop	{r3, r4, r5, r6, r7, r8, r9, pc}
 804              	.LVL111:
 805              	.L85:
 806              		.loc 1 129 1 view .LVU210
 807 0482 00BFAFF3 		.align	3
 807      0080
 808              	.L84:
 809 0488 33333333 		.word	858993459
 810 048c 33331140 		.word	1074869043
 811 0490 CDCCCCCC 		.word	-858993459
 812 0494 CCCC1040 		.word	1074842828
 813 0498 66668640 		.word	1082549862
 814              		.cfi_endproc
 815              	.LFE66:
 817              		.section	.text.Battery_Init,"ax",%progbits
 818              		.align	1
 819              		.global	Battery_Init
 820              		.syntax unified
 821              		.thumb
 822              		.thumb_func
 824              	Battery_Init:
 825              	.LVL112:
 826              	.LFB65:
  18:BBBOOM/Src/Battery.c ****     uint8_t i=0;
ARM GAS  C:\Users\Lenovo\AppData\Local\Temp\ccxaGvSt.s 			page 19


 827              		.loc 1 18 1 is_stmt 1 view -0
 828              		.cfi_startproc
 829              		@ args = 0, pretend = 0, frame = 0
 830              		@ frame_needed = 0, uses_anonymous_args = 0
  18:BBBOOM/Src/Battery.c ****     uint8_t i=0;
 831              		.loc 1 18 1 is_stmt 0 view .LVU212
 832 0000 08B5     		push	{r3, lr}
 833              	.LCFI1:
 834              		.cfi_def_cfa_offset 8
 835              		.cfi_offset 3, -8
 836              		.cfi_offset 14, -4
  19:BBBOOM/Src/Battery.c ****     for ( i = 0; i < 3; i++)
 837              		.loc 1 19 5 is_stmt 1 view .LVU213
 838              	.LVL113:
  20:BBBOOM/Src/Battery.c ****     {
 839              		.loc 1 20 5 view .LVU214
  20:BBBOOM/Src/Battery.c ****     {
 840              		.loc 1 20 13 is_stmt 0 view .LVU215
 841 0002 0023     		movs	r3, #0
  20:BBBOOM/Src/Battery.c ****     {
 842              		.loc 1 20 5 view .LVU216
 843 0004 09E0     		b	.L87
 844              	.LVL114:
 845              	.L88:
  22:BBBOOM/Src/Battery.c ****         battery[i].CutOff_Voltage = cut_off_voltage;
 846              		.loc 1 22 9 is_stmt 1 discriminator 3 view .LVU217
  22:BBBOOM/Src/Battery.c ****         battery[i].CutOff_Voltage = cut_off_voltage;
 847              		.loc 1 22 16 is_stmt 0 discriminator 3 view .LVU218
 848 0006 03EB830C 		add	ip, r3, r3, lsl #2
 849 000a 00EBCC0C 		add	ip, r0, ip, lsl #3
  22:BBBOOM/Src/Battery.c ****         battery[i].CutOff_Voltage = cut_off_voltage;
 850              		.loc 1 22 34 discriminator 3 view .LVU219
 851 000e CCF82010 		str	r1, [ip, #32]	@ float
  23:BBBOOM/Src/Battery.c ****     }
 852              		.loc 1 23 9 is_stmt 1 discriminator 3 view .LVU220
  23:BBBOOM/Src/Battery.c ****     }
 853              		.loc 1 23 35 is_stmt 0 discriminator 3 view .LVU221
 854 0012 CCF82420 		str	r2, [ip, #36]	@ float
  20:BBBOOM/Src/Battery.c ****     {
 855              		.loc 1 20 26 is_stmt 1 discriminator 3 view .LVU222
 856 0016 0133     		adds	r3, r3, #1
 857              	.LVL115:
  20:BBBOOM/Src/Battery.c ****     {
 858              		.loc 1 20 26 is_stmt 0 discriminator 3 view .LVU223
 859 0018 DBB2     		uxtb	r3, r3
 860              	.LVL116:
 861              	.L87:
  20:BBBOOM/Src/Battery.c ****     {
 862              		.loc 1 20 20 is_stmt 1 discriminator 1 view .LVU224
 863 001a 022B     		cmp	r3, #2
 864 001c F3D9     		bls	.L88
  26:BBBOOM/Src/Battery.c **** }
 865              		.loc 1 26 5 view .LVU225
 866 001e FFF7FEFF 		bl	Battery_Refresh
 867              	.LVL117:
  27:BBBOOM/Src/Battery.c **** 
 868              		.loc 1 27 1 is_stmt 0 view .LVU226
ARM GAS  C:\Users\Lenovo\AppData\Local\Temp\ccxaGvSt.s 			page 20


 869 0022 08BD     		pop	{r3, pc}
 870              		.cfi_endproc
 871              	.LFE65:
 873              		.global	ADC2_value
 874              		.section	.bss.ADC2_value,"aw",%nobits
 875              		.align	2
 878              	ADC2_value:
 879 0000 00000000 		.space	32
 879      00000000 
 879      00000000 
 879      00000000 
 879      00000000 
 880              		.global	ADC1_value
 881              		.section	.bss.ADC1_value,"aw",%nobits
 882              		.align	2
 885              	ADC1_value:
 886 0000 00000000 		.space	32
 886      00000000 
 886      00000000 
 886      00000000 
 886      00000000 
 887              		.global	Battery
 888              		.section	.bss.Battery,"aw",%nobits
 889              		.align	2
 892              	Battery:
 893 0000 00000000 		.space	120
 893      00000000 
 893      00000000 
 893      00000000 
 893      00000000 
 894              		.text
 895              	.Letext0:
 896              		.file 2 "d:\\msys64\\mingw64\\arm-none-eabi\\include\\machine\\_default_types.h"
 897              		.file 3 "d:\\msys64\\mingw64\\arm-none-eabi\\include\\sys\\_stdint.h"
 898              		.file 4 "Drivers/CMSIS/Device/ST/STM32F1xx/Include/stm32f103xe.h"
 899              		.file 5 "Drivers/CMSIS/Device/ST/STM32F1xx/Include/stm32f1xx.h"
 900              		.file 6 "Drivers/STM32F1xx_HAL_Driver/Inc/stm32f1xx_hal_def.h"
 901              		.file 7 "Drivers/STM32F1xx_HAL_Driver/Inc/stm32f1xx_hal_dma.h"
 902              		.file 8 "Drivers/STM32F1xx_HAL_Driver/Inc/stm32f1xx_hal_adc.h"
 903              		.file 9 "Core/Inc/adc.h"
 904              		.file 10 "BBBOOM/Inc/Battery.h"
 905              		.file 11 "BBBOOM/Inc/ADS1015.h"
 906              		.file 12 "Drivers/STM32F1xx_HAL_Driver/Inc/stm32f1xx_hal_adc_ex.h"
 907              		.file 13 "Drivers/STM32F1xx_HAL_Driver/Inc/stm32f1xx_hal.h"
ARM GAS  C:\Users\Lenovo\AppData\Local\Temp\ccxaGvSt.s 			page 21

