ARM GAS  C:\Users\Lenovo\AppData\Local\Temp\ccRluK0S.s 			page 1


   1              		.cpu cortex-m3
   2              		.arch armv7-m
   3              		.fpu softvfp
   4              		.eabi_attribute 20, 1
   5              		.eabi_attribute 21, 1
   6              		.eabi_attribute 23, 3
   7              		.eabi_attribute 24, 1
   8              		.eabi_attribute 25, 1
   9              		.eabi_attribute 26, 1
  10              		.eabi_attribute 30, 6
  11              		.eabi_attribute 34, 1
  12              		.eabi_attribute 18, 4
  13              		.file	"gpio.c"
  14              		.text
  15              	.Ltext0:
  16              		.cfi_sections	.debug_frame
  17              		.file 1 "Core/Src/gpio.c"
  18              		.section	.text.MX_GPIO_Init,"ax",%progbits
  19              		.align	1
  20              		.global	MX_GPIO_Init
  21              		.syntax unified
  22              		.thumb
  23              		.thumb_func
  25              	MX_GPIO_Init:
  26              	.LFB65:
   1:Core/Src/gpio.c **** /* USER CODE BEGIN Header */
   2:Core/Src/gpio.c **** /**
   3:Core/Src/gpio.c ****   ******************************************************************************
   4:Core/Src/gpio.c ****   * @file    gpio.c
   5:Core/Src/gpio.c ****   * @brief   This file provides code for the configuration
   6:Core/Src/gpio.c ****   *          of all used GPIO pins.
   7:Core/Src/gpio.c ****   ******************************************************************************
   8:Core/Src/gpio.c ****   * @attention
   9:Core/Src/gpio.c ****   *
  10:Core/Src/gpio.c ****   * Copyright (c) 2024 STMicroelectronics.
  11:Core/Src/gpio.c ****   * All rights reserved.
  12:Core/Src/gpio.c ****   *
  13:Core/Src/gpio.c ****   * This software is licensed under terms that can be found in the LICENSE file
  14:Core/Src/gpio.c ****   * in the root directory of this software component.
  15:Core/Src/gpio.c ****   * If no LICENSE file comes with this software, it is provided AS-IS.
  16:Core/Src/gpio.c ****   *
  17:Core/Src/gpio.c ****   ******************************************************************************
  18:Core/Src/gpio.c ****   */
  19:Core/Src/gpio.c **** /* USER CODE END Header */
  20:Core/Src/gpio.c **** 
  21:Core/Src/gpio.c **** /* Includes ------------------------------------------------------------------*/
  22:Core/Src/gpio.c **** #include "gpio.h"
  23:Core/Src/gpio.c **** 
  24:Core/Src/gpio.c **** /* USER CODE BEGIN 0 */
  25:Core/Src/gpio.c **** 
  26:Core/Src/gpio.c **** /* USER CODE END 0 */
  27:Core/Src/gpio.c **** 
  28:Core/Src/gpio.c **** /*----------------------------------------------------------------------------*/
  29:Core/Src/gpio.c **** /* Configure GPIO                                                             */
  30:Core/Src/gpio.c **** /*----------------------------------------------------------------------------*/
  31:Core/Src/gpio.c **** /* USER CODE BEGIN 1 */
  32:Core/Src/gpio.c **** 
ARM GAS  C:\Users\Lenovo\AppData\Local\Temp\ccRluK0S.s 			page 2


  33:Core/Src/gpio.c **** /* USER CODE END 1 */
  34:Core/Src/gpio.c **** 
  35:Core/Src/gpio.c **** /** Configure pins as
  36:Core/Src/gpio.c ****         * Analog
  37:Core/Src/gpio.c ****         * Input
  38:Core/Src/gpio.c ****         * Output
  39:Core/Src/gpio.c ****         * EVENT_OUT
  40:Core/Src/gpio.c ****         * EXTI
  41:Core/Src/gpio.c **** */
  42:Core/Src/gpio.c **** void MX_GPIO_Init(void)
  43:Core/Src/gpio.c **** {
  27              		.loc 1 43 1
  28              		.cfi_startproc
  29              		@ args = 0, pretend = 0, frame = 32
  30              		@ frame_needed = 1, uses_anonymous_args = 0
  31 0000 80B5     		push	{r7, lr}
  32              	.LCFI0:
  33              		.cfi_def_cfa_offset 8
  34              		.cfi_offset 7, -8
  35              		.cfi_offset 14, -4
  36 0002 88B0     		sub	sp, sp, #32
  37              	.LCFI1:
  38              		.cfi_def_cfa_offset 40
  39 0004 00AF     		add	r7, sp, #0
  40              	.LCFI2:
  41              		.cfi_def_cfa_register 7
  44:Core/Src/gpio.c **** 
  45:Core/Src/gpio.c ****   GPIO_InitTypeDef GPIO_InitStruct = {0};
  42              		.loc 1 45 20
  43 0006 07F11003 		add	r3, r7, #16
  44 000a 0022     		movs	r2, #0
  45 000c 1A60     		str	r2, [r3]
  46 000e 5A60     		str	r2, [r3, #4]
  47 0010 9A60     		str	r2, [r3, #8]
  48 0012 DA60     		str	r2, [r3, #12]
  49              	.LBB2:
  46:Core/Src/gpio.c **** 
  47:Core/Src/gpio.c ****   /* GPIO Ports Clock Enable */
  48:Core/Src/gpio.c ****   __HAL_RCC_GPIOC_CLK_ENABLE();
  50              		.loc 1 48 3
  51 0014 234B     		ldr	r3, .L2
  52 0016 9B69     		ldr	r3, [r3, #24]
  53 0018 224A     		ldr	r2, .L2
  54 001a 43F01003 		orr	r3, r3, #16
  55 001e 9361     		str	r3, [r2, #24]
  56 0020 204B     		ldr	r3, .L2
  57 0022 9B69     		ldr	r3, [r3, #24]
  58 0024 03F01003 		and	r3, r3, #16
  59 0028 FB60     		str	r3, [r7, #12]
  60 002a FB68     		ldr	r3, [r7, #12]
  61              	.LBE2:
  62              	.LBB3:
  49:Core/Src/gpio.c ****   __HAL_RCC_GPIOD_CLK_ENABLE();
  63              		.loc 1 49 3
  64 002c 1D4B     		ldr	r3, .L2
  65 002e 9B69     		ldr	r3, [r3, #24]
  66 0030 1C4A     		ldr	r2, .L2
ARM GAS  C:\Users\Lenovo\AppData\Local\Temp\ccRluK0S.s 			page 3


  67 0032 43F02003 		orr	r3, r3, #32
  68 0036 9361     		str	r3, [r2, #24]
  69 0038 1A4B     		ldr	r3, .L2
  70 003a 9B69     		ldr	r3, [r3, #24]
  71 003c 03F02003 		and	r3, r3, #32
  72 0040 BB60     		str	r3, [r7, #8]
  73 0042 BB68     		ldr	r3, [r7, #8]
  74              	.LBE3:
  75              	.LBB4:
  50:Core/Src/gpio.c ****   __HAL_RCC_GPIOA_CLK_ENABLE();
  76              		.loc 1 50 3
  77 0044 174B     		ldr	r3, .L2
  78 0046 9B69     		ldr	r3, [r3, #24]
  79 0048 164A     		ldr	r2, .L2
  80 004a 43F00403 		orr	r3, r3, #4
  81 004e 9361     		str	r3, [r2, #24]
  82 0050 144B     		ldr	r3, .L2
  83 0052 9B69     		ldr	r3, [r3, #24]
  84 0054 03F00403 		and	r3, r3, #4
  85 0058 7B60     		str	r3, [r7, #4]
  86 005a 7B68     		ldr	r3, [r7, #4]
  87              	.LBE4:
  88              	.LBB5:
  51:Core/Src/gpio.c ****   __HAL_RCC_GPIOB_CLK_ENABLE();
  89              		.loc 1 51 3
  90 005c 114B     		ldr	r3, .L2
  91 005e 9B69     		ldr	r3, [r3, #24]
  92 0060 104A     		ldr	r2, .L2
  93 0062 43F00803 		orr	r3, r3, #8
  94 0066 9361     		str	r3, [r2, #24]
  95 0068 0E4B     		ldr	r3, .L2
  96 006a 9B69     		ldr	r3, [r3, #24]
  97 006c 03F00803 		and	r3, r3, #8
  98 0070 3B60     		str	r3, [r7]
  99 0072 3B68     		ldr	r3, [r7]
 100              	.LBE5:
  52:Core/Src/gpio.c **** 
  53:Core/Src/gpio.c ****   /*Configure GPIO pin : PtPin */
  54:Core/Src/gpio.c ****   GPIO_InitStruct.Pin = Button_Pin;
 101              		.loc 1 54 23
 102 0074 2023     		movs	r3, #32
 103 0076 3B61     		str	r3, [r7, #16]
  55:Core/Src/gpio.c ****   GPIO_InitStruct.Mode = GPIO_MODE_IT_FALLING;
 104              		.loc 1 55 24
 105 0078 0B4B     		ldr	r3, .L2+4
 106 007a 7B61     		str	r3, [r7, #20]
  56:Core/Src/gpio.c ****   GPIO_InitStruct.Pull = GPIO_PULLUP;
 107              		.loc 1 56 24
 108 007c 0123     		movs	r3, #1
 109 007e BB61     		str	r3, [r7, #24]
  57:Core/Src/gpio.c ****   HAL_GPIO_Init(Button_GPIO_Port, &GPIO_InitStruct);
 110              		.loc 1 57 3
 111 0080 07F11003 		add	r3, r7, #16
 112 0084 1946     		mov	r1, r3
 113 0086 0948     		ldr	r0, .L2+8
 114 0088 FFF7FEFF 		bl	HAL_GPIO_Init
  58:Core/Src/gpio.c **** 
ARM GAS  C:\Users\Lenovo\AppData\Local\Temp\ccRluK0S.s 			page 4


  59:Core/Src/gpio.c ****   /* EXTI interrupt init*/
  60:Core/Src/gpio.c ****   HAL_NVIC_SetPriority(EXTI9_5_IRQn, 0, 0);
 115              		.loc 1 60 3
 116 008c 0022     		movs	r2, #0
 117 008e 0021     		movs	r1, #0
 118 0090 1720     		movs	r0, #23
 119 0092 FFF7FEFF 		bl	HAL_NVIC_SetPriority
  61:Core/Src/gpio.c ****   HAL_NVIC_EnableIRQ(EXTI9_5_IRQn);
 120              		.loc 1 61 3
 121 0096 1720     		movs	r0, #23
 122 0098 FFF7FEFF 		bl	HAL_NVIC_EnableIRQ
  62:Core/Src/gpio.c **** 
  63:Core/Src/gpio.c **** }
 123              		.loc 1 63 1
 124 009c 00BF     		nop
 125 009e 2037     		adds	r7, r7, #32
 126              	.LCFI3:
 127              		.cfi_def_cfa_offset 8
 128 00a0 BD46     		mov	sp, r7
 129              	.LCFI4:
 130              		.cfi_def_cfa_register 13
 131              		@ sp needed
 132 00a2 80BD     		pop	{r7, pc}
 133              	.L3:
 134              		.align	2
 135              	.L2:
 136 00a4 00100240 		.word	1073876992
 137 00a8 00002110 		.word	270598144
 138 00ac 000C0140 		.word	1073810432
 139              		.cfi_endproc
 140              	.LFE65:
 142              		.text
 143              	.Letext0:
 144              		.file 2 "Drivers/CMSIS/Device/ST/STM32F1xx/Include/stm32f103xe.h"
 145              		.file 3 "d:\\msys64\\mingw64\\arm-none-eabi\\include\\machine\\_default_types.h"
 146              		.file 4 "d:\\msys64\\mingw64\\arm-none-eabi\\include\\sys\\_stdint.h"
 147              		.file 5 "Drivers/STM32F1xx_HAL_Driver/Inc/stm32f1xx_hal_gpio.h"
 148              		.file 6 "Drivers/STM32F1xx_HAL_Driver/Inc/stm32f1xx_hal_cortex.h"
ARM GAS  C:\Users\Lenovo\AppData\Local\Temp\ccRluK0S.s 			page 5


DEFINED SYMBOLS
                            *ABS*:0000000000000000 gpio.c
C:\Users\Lenovo\AppData\Local\Temp\ccRluK0S.s:19     .text.MX_GPIO_Init:0000000000000000 $t
C:\Users\Lenovo\AppData\Local\Temp\ccRluK0S.s:25     .text.MX_GPIO_Init:0000000000000000 MX_GPIO_Init
C:\Users\Lenovo\AppData\Local\Temp\ccRluK0S.s:136    .text.MX_GPIO_Init:00000000000000a4 $d

UNDEFINED SYMBOLS
HAL_GPIO_Init
HAL_NVIC_SetPriority
HAL_NVIC_EnableIRQ
