ARM GAS  C:\Users\Lenovo\AppData\Local\Temp\ccU278X6.s 			page 1


   1              		.cpu cortex-m3
   2              		.arch armv7-m
   3              		.fpu softvfp
   4              		.eabi_attribute 20, 1
   5              		.eabi_attribute 21, 1
   6              		.eabi_attribute 23, 3
   7              		.eabi_attribute 24, 1
   8              		.eabi_attribute 25, 1
   9              		.eabi_attribute 26, 1
  10              		.eabi_attribute 30, 6
  11              		.eabi_attribute 34, 1
  12              		.eabi_attribute 18, 4
  13              		.file	"gpio.c"
  14              		.text
  15              	.Ltext0:
  16              		.cfi_sections	.debug_frame
  17              		.file 1 "Core/Src/gpio.c"
  18              		.section	.text.MX_GPIO_Init,"ax",%progbits
  19              		.align	1
  20              		.global	MX_GPIO_Init
  21              		.syntax unified
  22              		.thumb
  23              		.thumb_func
  25              	MX_GPIO_Init:
  26              	.LFB65:
   1:Core/Src/gpio.c **** /* USER CODE BEGIN Header */
   2:Core/Src/gpio.c **** /**
   3:Core/Src/gpio.c ****   ******************************************************************************
   4:Core/Src/gpio.c ****   * @file    gpio.c
   5:Core/Src/gpio.c ****   * @brief   This file provides code for the configuration
   6:Core/Src/gpio.c ****   *          of all used GPIO pins.
   7:Core/Src/gpio.c ****   ******************************************************************************
   8:Core/Src/gpio.c ****   * @attention
   9:Core/Src/gpio.c ****   *
  10:Core/Src/gpio.c ****   * Copyright (c) 2024 STMicroelectronics.
  11:Core/Src/gpio.c ****   * All rights reserved.
  12:Core/Src/gpio.c ****   *
  13:Core/Src/gpio.c ****   * This software is licensed under terms that can be found in the LICENSE file
  14:Core/Src/gpio.c ****   * in the root directory of this software component.
  15:Core/Src/gpio.c ****   * If no LICENSE file comes with this software, it is provided AS-IS.
  16:Core/Src/gpio.c ****   *
  17:Core/Src/gpio.c ****   ******************************************************************************
  18:Core/Src/gpio.c ****   */
  19:Core/Src/gpio.c **** /* USER CODE END Header */
  20:Core/Src/gpio.c **** 
  21:Core/Src/gpio.c **** /* Includes ------------------------------------------------------------------*/
  22:Core/Src/gpio.c **** #include "gpio.h"
  23:Core/Src/gpio.c **** 
  24:Core/Src/gpio.c **** /* USER CODE BEGIN 0 */
  25:Core/Src/gpio.c **** 
  26:Core/Src/gpio.c **** /* USER CODE END 0 */
  27:Core/Src/gpio.c **** 
  28:Core/Src/gpio.c **** /*----------------------------------------------------------------------------*/
  29:Core/Src/gpio.c **** /* Configure GPIO                                                             */
  30:Core/Src/gpio.c **** /*----------------------------------------------------------------------------*/
  31:Core/Src/gpio.c **** /* USER CODE BEGIN 1 */
  32:Core/Src/gpio.c **** 
ARM GAS  C:\Users\Lenovo\AppData\Local\Temp\ccU278X6.s 			page 2


  33:Core/Src/gpio.c **** /* USER CODE END 1 */
  34:Core/Src/gpio.c **** 
  35:Core/Src/gpio.c **** /** Configure pins as
  36:Core/Src/gpio.c ****         * Analog
  37:Core/Src/gpio.c ****         * Input
  38:Core/Src/gpio.c ****         * Output
  39:Core/Src/gpio.c ****         * EVENT_OUT
  40:Core/Src/gpio.c ****         * EXTI
  41:Core/Src/gpio.c **** */
  42:Core/Src/gpio.c **** void MX_GPIO_Init(void)
  43:Core/Src/gpio.c **** {
  27              		.loc 1 43 1
  28              		.cfi_startproc
  29              		@ args = 0, pretend = 0, frame = 32
  30              		@ frame_needed = 1, uses_anonymous_args = 0
  31 0000 80B5     		push	{r7, lr}
  32              	.LCFI0:
  33              		.cfi_def_cfa_offset 8
  34              		.cfi_offset 7, -8
  35              		.cfi_offset 14, -4
  36 0002 88B0     		sub	sp, sp, #32
  37              	.LCFI1:
  38              		.cfi_def_cfa_offset 40
  39 0004 00AF     		add	r7, sp, #0
  40              	.LCFI2:
  41              		.cfi_def_cfa_register 7
  44:Core/Src/gpio.c **** 
  45:Core/Src/gpio.c ****   GPIO_InitTypeDef GPIO_InitStruct = {0};
  42              		.loc 1 45 20
  43 0006 07F11003 		add	r3, r7, #16
  44 000a 0022     		movs	r2, #0
  45 000c 1A60     		str	r2, [r3]
  46 000e 5A60     		str	r2, [r3, #4]
  47 0010 9A60     		str	r2, [r3, #8]
  48 0012 DA60     		str	r2, [r3, #12]
  49              	.LBB2:
  46:Core/Src/gpio.c **** 
  47:Core/Src/gpio.c ****   /* GPIO Ports Clock Enable */
  48:Core/Src/gpio.c ****   __HAL_RCC_GPIOC_CLK_ENABLE();
  50              		.loc 1 48 3
  51 0014 2E4B     		ldr	r3, .L2
  52 0016 9B69     		ldr	r3, [r3, #24]
  53 0018 2D4A     		ldr	r2, .L2
  54 001a 43F01003 		orr	r3, r3, #16
  55 001e 9361     		str	r3, [r2, #24]
  56 0020 2B4B     		ldr	r3, .L2
  57 0022 9B69     		ldr	r3, [r3, #24]
  58 0024 03F01003 		and	r3, r3, #16
  59 0028 FB60     		str	r3, [r7, #12]
  60 002a FB68     		ldr	r3, [r7, #12]
  61              	.LBE2:
  62              	.LBB3:
  49:Core/Src/gpio.c ****   __HAL_RCC_GPIOD_CLK_ENABLE();
  63              		.loc 1 49 3
  64 002c 284B     		ldr	r3, .L2
  65 002e 9B69     		ldr	r3, [r3, #24]
  66 0030 274A     		ldr	r2, .L2
ARM GAS  C:\Users\Lenovo\AppData\Local\Temp\ccU278X6.s 			page 3


  67 0032 43F02003 		orr	r3, r3, #32
  68 0036 9361     		str	r3, [r2, #24]
  69 0038 254B     		ldr	r3, .L2
  70 003a 9B69     		ldr	r3, [r3, #24]
  71 003c 03F02003 		and	r3, r3, #32
  72 0040 BB60     		str	r3, [r7, #8]
  73 0042 BB68     		ldr	r3, [r7, #8]
  74              	.LBE3:
  75              	.LBB4:
  50:Core/Src/gpio.c ****   __HAL_RCC_GPIOA_CLK_ENABLE();
  76              		.loc 1 50 3
  77 0044 224B     		ldr	r3, .L2
  78 0046 9B69     		ldr	r3, [r3, #24]
  79 0048 214A     		ldr	r2, .L2
  80 004a 43F00403 		orr	r3, r3, #4
  81 004e 9361     		str	r3, [r2, #24]
  82 0050 1F4B     		ldr	r3, .L2
  83 0052 9B69     		ldr	r3, [r3, #24]
  84 0054 03F00403 		and	r3, r3, #4
  85 0058 7B60     		str	r3, [r7, #4]
  86 005a 7B68     		ldr	r3, [r7, #4]
  87              	.LBE4:
  88              	.LBB5:
  51:Core/Src/gpio.c ****   __HAL_RCC_GPIOB_CLK_ENABLE();
  89              		.loc 1 51 3
  90 005c 1C4B     		ldr	r3, .L2
  91 005e 9B69     		ldr	r3, [r3, #24]
  92 0060 1B4A     		ldr	r2, .L2
  93 0062 43F00803 		orr	r3, r3, #8
  94 0066 9361     		str	r3, [r2, #24]
  95 0068 194B     		ldr	r3, .L2
  96 006a 9B69     		ldr	r3, [r3, #24]
  97 006c 03F00803 		and	r3, r3, #8
  98 0070 3B60     		str	r3, [r7]
  99 0072 3B68     		ldr	r3, [r7]
 100              	.LBE5:
  52:Core/Src/gpio.c **** 
  53:Core/Src/gpio.c ****   /*Configure GPIO pin Output Level */
  54:Core/Src/gpio.c ****   HAL_GPIO_WritePin(GPIOA, VBAT1_Pin|VBAT2_Pin|VBAT3_Pin, GPIO_PIN_RESET);
 101              		.loc 1 54 3
 102 0074 0022     		movs	r2, #0
 103 0076 4FF4E061 		mov	r1, #1792
 104 007a 1648     		ldr	r0, .L2+4
 105 007c FFF7FEFF 		bl	HAL_GPIO_WritePin
  55:Core/Src/gpio.c **** 
  56:Core/Src/gpio.c ****   /*Configure GPIO pins : PAPin PAPin PAPin */
  57:Core/Src/gpio.c ****   GPIO_InitStruct.Pin = VBAT1_Pin|VBAT2_Pin|VBAT3_Pin;
 106              		.loc 1 57 23
 107 0080 4FF4E063 		mov	r3, #1792
 108 0084 3B61     		str	r3, [r7, #16]
  58:Core/Src/gpio.c ****   GPIO_InitStruct.Mode = GPIO_MODE_OUTPUT_PP;
 109              		.loc 1 58 24
 110 0086 0123     		movs	r3, #1
 111 0088 7B61     		str	r3, [r7, #20]
  59:Core/Src/gpio.c ****   GPIO_InitStruct.Pull = GPIO_PULLDOWN;
 112              		.loc 1 59 24
 113 008a 0223     		movs	r3, #2
ARM GAS  C:\Users\Lenovo\AppData\Local\Temp\ccU278X6.s 			page 4


 114 008c BB61     		str	r3, [r7, #24]
  60:Core/Src/gpio.c ****   GPIO_InitStruct.Speed = GPIO_SPEED_FREQ_MEDIUM;
 115              		.loc 1 60 25
 116 008e 0123     		movs	r3, #1
 117 0090 FB61     		str	r3, [r7, #28]
  61:Core/Src/gpio.c ****   HAL_GPIO_Init(GPIOA, &GPIO_InitStruct);
 118              		.loc 1 61 3
 119 0092 07F11003 		add	r3, r7, #16
 120 0096 1946     		mov	r1, r3
 121 0098 0E48     		ldr	r0, .L2+4
 122 009a FFF7FEFF 		bl	HAL_GPIO_Init
  62:Core/Src/gpio.c **** 
  63:Core/Src/gpio.c ****   /*Configure GPIO pin : PtPin */
  64:Core/Src/gpio.c ****   GPIO_InitStruct.Pin = Button_Pin;
 123              		.loc 1 64 23
 124 009e 2023     		movs	r3, #32
 125 00a0 3B61     		str	r3, [r7, #16]
  65:Core/Src/gpio.c ****   GPIO_InitStruct.Mode = GPIO_MODE_IT_FALLING;
 126              		.loc 1 65 24
 127 00a2 0D4B     		ldr	r3, .L2+8
 128 00a4 7B61     		str	r3, [r7, #20]
  66:Core/Src/gpio.c ****   GPIO_InitStruct.Pull = GPIO_NOPULL;
 129              		.loc 1 66 24
 130 00a6 0023     		movs	r3, #0
 131 00a8 BB61     		str	r3, [r7, #24]
  67:Core/Src/gpio.c ****   HAL_GPIO_Init(Button_GPIO_Port, &GPIO_InitStruct);
 132              		.loc 1 67 3
 133 00aa 07F11003 		add	r3, r7, #16
 134 00ae 1946     		mov	r1, r3
 135 00b0 0A48     		ldr	r0, .L2+12
 136 00b2 FFF7FEFF 		bl	HAL_GPIO_Init
  68:Core/Src/gpio.c **** 
  69:Core/Src/gpio.c ****   /* EXTI interrupt init*/
  70:Core/Src/gpio.c ****   HAL_NVIC_SetPriority(EXTI9_5_IRQn, 0, 0);
 137              		.loc 1 70 3
 138 00b6 0022     		movs	r2, #0
 139 00b8 0021     		movs	r1, #0
 140 00ba 1720     		movs	r0, #23
 141 00bc FFF7FEFF 		bl	HAL_NVIC_SetPriority
  71:Core/Src/gpio.c ****   HAL_NVIC_EnableIRQ(EXTI9_5_IRQn);
 142              		.loc 1 71 3
 143 00c0 1720     		movs	r0, #23
 144 00c2 FFF7FEFF 		bl	HAL_NVIC_EnableIRQ
  72:Core/Src/gpio.c **** 
  73:Core/Src/gpio.c **** }
 145              		.loc 1 73 1
 146 00c6 00BF     		nop
 147 00c8 2037     		adds	r7, r7, #32
 148              	.LCFI3:
 149              		.cfi_def_cfa_offset 8
 150 00ca BD46     		mov	sp, r7
 151              	.LCFI4:
 152              		.cfi_def_cfa_register 13
 153              		@ sp needed
 154 00cc 80BD     		pop	{r7, pc}
 155              	.L3:
 156 00ce 00BF     		.align	2
ARM GAS  C:\Users\Lenovo\AppData\Local\Temp\ccU278X6.s 			page 5


 157              	.L2:
 158 00d0 00100240 		.word	1073876992
 159 00d4 00080140 		.word	1073809408
 160 00d8 00002110 		.word	270598144
 161 00dc 000C0140 		.word	1073810432
 162              		.cfi_endproc
 163              	.LFE65:
 165              		.text
 166              	.Letext0:
 167              		.file 2 "Drivers/CMSIS/Device/ST/STM32F1xx/Include/stm32f103xe.h"
 168              		.file 3 "d:\\msys64\\mingw64\\arm-none-eabi\\include\\machine\\_default_types.h"
 169              		.file 4 "d:\\msys64\\mingw64\\arm-none-eabi\\include\\sys\\_stdint.h"
 170              		.file 5 "Drivers/STM32F1xx_HAL_Driver/Inc/stm32f1xx_hal_gpio.h"
 171              		.file 6 "Drivers/STM32F1xx_HAL_Driver/Inc/stm32f1xx_hal_cortex.h"
ARM GAS  C:\Users\Lenovo\AppData\Local\Temp\ccU278X6.s 			page 6

