ARM GAS  C:\Users\Lenovo\AppData\Local\Temp\ccQgXVV6.s 			page 1


   1              		.cpu cortex-m3
   2              		.arch armv7-m
   3              		.fpu softvfp
   4              		.eabi_attribute 20, 1
   5              		.eabi_attribute 21, 1
   6              		.eabi_attribute 23, 3
   7              		.eabi_attribute 24, 1
   8              		.eabi_attribute 25, 1
   9              		.eabi_attribute 26, 1
  10              		.eabi_attribute 30, 6
  11              		.eabi_attribute 34, 1
  12              		.eabi_attribute 18, 4
  13              		.file	"i2c.c"
  14              		.text
  15              	.Ltext0:
  16              		.cfi_sections	.debug_frame
  17              		.file 1 "Core/Src/i2c.c"
  18              		.global	I2C2_RX_BUF
  19              		.section	.bss.I2C2_RX_BUF,"aw",%nobits
  20              		.align	2
  23              	I2C2_RX_BUF:
  24 0000 00000000 		.space	16
  24      00000000 
  24      00000000 
  24      00000000 
  25              		.global	hi2c1
  26              		.section	.bss.hi2c1,"aw",%nobits
  27              		.align	2
  30              	hi2c1:
  31 0000 00000000 		.space	84
  31      00000000 
  31      00000000 
  31      00000000 
  31      00000000 
  32              		.global	hi2c2
  33              		.section	.bss.hi2c2,"aw",%nobits
  34              		.align	2
  37              	hi2c2:
  38 0000 00000000 		.space	84
  38      00000000 
  38      00000000 
  38      00000000 
  38      00000000 
  39              		.section	.text.MX_I2C1_Init,"ax",%progbits
  40              		.align	1
  41              		.global	MX_I2C1_Init
  42              		.syntax unified
  43              		.thumb
  44              		.thumb_func
  46              	MX_I2C1_Init:
  47              	.LFB65:
   1:Core/Src/i2c.c **** /* USER CODE BEGIN Header */
   2:Core/Src/i2c.c **** /**
   3:Core/Src/i2c.c ****   ******************************************************************************
   4:Core/Src/i2c.c ****   * @file    i2c.c
   5:Core/Src/i2c.c ****   * @brief   This file provides code for the configuration
   6:Core/Src/i2c.c ****   *          of the I2C instances.
ARM GAS  C:\Users\Lenovo\AppData\Local\Temp\ccQgXVV6.s 			page 2


   7:Core/Src/i2c.c ****   ******************************************************************************
   8:Core/Src/i2c.c ****   * @attention
   9:Core/Src/i2c.c ****   *
  10:Core/Src/i2c.c ****   * Copyright (c) 2024 STMicroelectronics.
  11:Core/Src/i2c.c ****   * All rights reserved.
  12:Core/Src/i2c.c ****   *
  13:Core/Src/i2c.c ****   * This software is licensed under terms that can be found in the LICENSE file
  14:Core/Src/i2c.c ****   * in the root directory of this software component.
  15:Core/Src/i2c.c ****   * If no LICENSE file comes with this software, it is provided AS-IS.
  16:Core/Src/i2c.c ****   *
  17:Core/Src/i2c.c ****   ******************************************************************************
  18:Core/Src/i2c.c ****   */
  19:Core/Src/i2c.c **** /* USER CODE END Header */
  20:Core/Src/i2c.c **** /* Includes ------------------------------------------------------------------*/
  21:Core/Src/i2c.c **** #include "i2c.h"
  22:Core/Src/i2c.c **** 
  23:Core/Src/i2c.c **** /* USER CODE BEGIN 0 */
  24:Core/Src/i2c.c **** uint8_t I2C2_RX_BUF[16];
  25:Core/Src/i2c.c **** /* USER CODE END 0 */
  26:Core/Src/i2c.c **** 
  27:Core/Src/i2c.c **** I2C_HandleTypeDef hi2c1;
  28:Core/Src/i2c.c **** I2C_HandleTypeDef hi2c2;
  29:Core/Src/i2c.c **** 
  30:Core/Src/i2c.c **** /* I2C1 init function */
  31:Core/Src/i2c.c **** void MX_I2C1_Init(void)
  32:Core/Src/i2c.c **** {
  48              		.loc 1 32 1
  49              		.cfi_startproc
  50              		@ args = 0, pretend = 0, frame = 0
  51              		@ frame_needed = 1, uses_anonymous_args = 0
  52 0000 80B5     		push	{r7, lr}
  53              	.LCFI0:
  54              		.cfi_def_cfa_offset 8
  55              		.cfi_offset 7, -8
  56              		.cfi_offset 14, -4
  57 0002 00AF     		add	r7, sp, #0
  58              	.LCFI1:
  59              		.cfi_def_cfa_register 7
  33:Core/Src/i2c.c **** 
  34:Core/Src/i2c.c ****   /* USER CODE BEGIN I2C1_Init 0 */
  35:Core/Src/i2c.c **** 
  36:Core/Src/i2c.c ****   /* USER CODE END I2C1_Init 0 */
  37:Core/Src/i2c.c **** 
  38:Core/Src/i2c.c ****   /* USER CODE BEGIN I2C1_Init 1 */
  39:Core/Src/i2c.c **** 
  40:Core/Src/i2c.c ****   /* USER CODE END I2C1_Init 1 */
  41:Core/Src/i2c.c ****   hi2c1.Instance = I2C1;
  60              		.loc 1 41 18
  61 0004 124B     		ldr	r3, .L4
  62 0006 134A     		ldr	r2, .L4+4
  63 0008 1A60     		str	r2, [r3]
  42:Core/Src/i2c.c ****   hi2c1.Init.ClockSpeed = 100000;
  64              		.loc 1 42 25
  65 000a 114B     		ldr	r3, .L4
  66 000c 124A     		ldr	r2, .L4+8
  67 000e 5A60     		str	r2, [r3, #4]
  43:Core/Src/i2c.c ****   hi2c1.Init.DutyCycle = I2C_DUTYCYCLE_2;
ARM GAS  C:\Users\Lenovo\AppData\Local\Temp\ccQgXVV6.s 			page 3


  68              		.loc 1 43 24
  69 0010 0F4B     		ldr	r3, .L4
  70 0012 0022     		movs	r2, #0
  71 0014 9A60     		str	r2, [r3, #8]
  44:Core/Src/i2c.c ****   hi2c1.Init.OwnAddress1 = 0;
  72              		.loc 1 44 26
  73 0016 0E4B     		ldr	r3, .L4
  74 0018 0022     		movs	r2, #0
  75 001a DA60     		str	r2, [r3, #12]
  45:Core/Src/i2c.c ****   hi2c1.Init.AddressingMode = I2C_ADDRESSINGMODE_7BIT;
  76              		.loc 1 45 29
  77 001c 0C4B     		ldr	r3, .L4
  78 001e 4FF48042 		mov	r2, #16384
  79 0022 1A61     		str	r2, [r3, #16]
  46:Core/Src/i2c.c ****   hi2c1.Init.DualAddressMode = I2C_DUALADDRESS_DISABLE;
  80              		.loc 1 46 30
  81 0024 0A4B     		ldr	r3, .L4
  82 0026 0022     		movs	r2, #0
  83 0028 5A61     		str	r2, [r3, #20]
  47:Core/Src/i2c.c ****   hi2c1.Init.OwnAddress2 = 0;
  84              		.loc 1 47 26
  85 002a 094B     		ldr	r3, .L4
  86 002c 0022     		movs	r2, #0
  87 002e 9A61     		str	r2, [r3, #24]
  48:Core/Src/i2c.c ****   hi2c1.Init.GeneralCallMode = I2C_GENERALCALL_DISABLE;
  88              		.loc 1 48 30
  89 0030 074B     		ldr	r3, .L4
  90 0032 0022     		movs	r2, #0
  91 0034 DA61     		str	r2, [r3, #28]
  49:Core/Src/i2c.c ****   hi2c1.Init.NoStretchMode = I2C_NOSTRETCH_DISABLE;
  92              		.loc 1 49 28
  93 0036 064B     		ldr	r3, .L4
  94 0038 0022     		movs	r2, #0
  95 003a 1A62     		str	r2, [r3, #32]
  50:Core/Src/i2c.c ****   if (HAL_I2C_Init(&hi2c1) != HAL_OK)
  96              		.loc 1 50 7
  97 003c 0448     		ldr	r0, .L4
  98 003e FFF7FEFF 		bl	HAL_I2C_Init
  99 0042 0346     		mov	r3, r0
 100              		.loc 1 50 6
 101 0044 002B     		cmp	r3, #0
 102 0046 01D0     		beq	.L3
  51:Core/Src/i2c.c ****   {
  52:Core/Src/i2c.c ****     Error_Handler();
 103              		.loc 1 52 5
 104 0048 FFF7FEFF 		bl	Error_Handler
 105              	.L3:
  53:Core/Src/i2c.c ****   }
  54:Core/Src/i2c.c ****   /* USER CODE BEGIN I2C1_Init 2 */
  55:Core/Src/i2c.c **** 
  56:Core/Src/i2c.c ****   /* USER CODE END I2C1_Init 2 */
  57:Core/Src/i2c.c **** 
  58:Core/Src/i2c.c **** }
 106              		.loc 1 58 1
 107 004c 00BF     		nop
 108 004e 80BD     		pop	{r7, pc}
 109              	.L5:
ARM GAS  C:\Users\Lenovo\AppData\Local\Temp\ccQgXVV6.s 			page 4


 110              		.align	2
 111              	.L4:
 112 0050 00000000 		.word	hi2c1
 113 0054 00540040 		.word	1073763328
 114 0058 A0860100 		.word	100000
 115              		.cfi_endproc
 116              	.LFE65:
 118              		.section	.text.MX_I2C2_Init,"ax",%progbits
 119              		.align	1
 120              		.global	MX_I2C2_Init
 121              		.syntax unified
 122              		.thumb
 123              		.thumb_func
 125              	MX_I2C2_Init:
 126              	.LFB66:
  59:Core/Src/i2c.c **** /* I2C2 init function */
  60:Core/Src/i2c.c **** void MX_I2C2_Init(void)
  61:Core/Src/i2c.c **** {
 127              		.loc 1 61 1
 128              		.cfi_startproc
 129              		@ args = 0, pretend = 0, frame = 0
 130              		@ frame_needed = 1, uses_anonymous_args = 0
 131 0000 80B5     		push	{r7, lr}
 132              	.LCFI2:
 133              		.cfi_def_cfa_offset 8
 134              		.cfi_offset 7, -8
 135              		.cfi_offset 14, -4
 136 0002 00AF     		add	r7, sp, #0
 137              	.LCFI3:
 138              		.cfi_def_cfa_register 7
  62:Core/Src/i2c.c **** 
  63:Core/Src/i2c.c ****   /* USER CODE BEGIN I2C2_Init 0 */
  64:Core/Src/i2c.c **** 
  65:Core/Src/i2c.c ****   /* USER CODE END I2C2_Init 0 */
  66:Core/Src/i2c.c **** 
  67:Core/Src/i2c.c ****   /* USER CODE BEGIN I2C2_Init 1 */
  68:Core/Src/i2c.c **** 
  69:Core/Src/i2c.c ****   /* USER CODE END I2C2_Init 1 */
  70:Core/Src/i2c.c ****   hi2c2.Instance = I2C2;
 139              		.loc 1 70 18
 140 0004 164B     		ldr	r3, .L8
 141 0006 174A     		ldr	r2, .L8+4
 142 0008 1A60     		str	r2, [r3]
  71:Core/Src/i2c.c ****   hi2c2.Init.ClockSpeed = 100000;
 143              		.loc 1 71 25
 144 000a 154B     		ldr	r3, .L8
 145 000c 164A     		ldr	r2, .L8+8
 146 000e 5A60     		str	r2, [r3, #4]
  72:Core/Src/i2c.c ****   hi2c2.Init.DutyCycle = I2C_DUTYCYCLE_2;
 147              		.loc 1 72 24
 148 0010 134B     		ldr	r3, .L8
 149 0012 0022     		movs	r2, #0
 150 0014 9A60     		str	r2, [r3, #8]
  73:Core/Src/i2c.c ****   hi2c2.Init.OwnAddress1 = 0;
 151              		.loc 1 73 26
 152 0016 124B     		ldr	r3, .L8
 153 0018 0022     		movs	r2, #0
ARM GAS  C:\Users\Lenovo\AppData\Local\Temp\ccQgXVV6.s 			page 5


 154 001a DA60     		str	r2, [r3, #12]
  74:Core/Src/i2c.c ****   hi2c2.Init.AddressingMode = I2C_ADDRESSINGMODE_7BIT;
 155              		.loc 1 74 29
 156 001c 104B     		ldr	r3, .L8
 157 001e 4FF48042 		mov	r2, #16384
 158 0022 1A61     		str	r2, [r3, #16]
  75:Core/Src/i2c.c ****   hi2c2.Init.DualAddressMode = I2C_DUALADDRESS_DISABLE;
 159              		.loc 1 75 30
 160 0024 0E4B     		ldr	r3, .L8
 161 0026 0022     		movs	r2, #0
 162 0028 5A61     		str	r2, [r3, #20]
  76:Core/Src/i2c.c ****   hi2c2.Init.OwnAddress2 = 0;
 163              		.loc 1 76 26
 164 002a 0D4B     		ldr	r3, .L8
 165 002c 0022     		movs	r2, #0
 166 002e 9A61     		str	r2, [r3, #24]
  77:Core/Src/i2c.c ****   hi2c2.Init.GeneralCallMode = I2C_GENERALCALL_DISABLE;
 167              		.loc 1 77 30
 168 0030 0B4B     		ldr	r3, .L8
 169 0032 0022     		movs	r2, #0
 170 0034 DA61     		str	r2, [r3, #28]
  78:Core/Src/i2c.c ****   hi2c2.Init.NoStretchMode = I2C_NOSTRETCH_DISABLE;
 171              		.loc 1 78 28
 172 0036 0A4B     		ldr	r3, .L8
 173 0038 0022     		movs	r2, #0
 174 003a 1A62     		str	r2, [r3, #32]
  79:Core/Src/i2c.c ****   if (HAL_I2C_Init(&hi2c2) != HAL_OK)
 175              		.loc 1 79 7
 176 003c 0848     		ldr	r0, .L8
 177 003e FFF7FEFF 		bl	HAL_I2C_Init
 178 0042 0346     		mov	r3, r0
 179              		.loc 1 79 6
 180 0044 002B     		cmp	r3, #0
 181 0046 01D0     		beq	.L7
  80:Core/Src/i2c.c ****   {
  81:Core/Src/i2c.c ****     Error_Handler();
 182              		.loc 1 81 5
 183 0048 FFF7FEFF 		bl	Error_Handler
 184              	.L7:
  82:Core/Src/i2c.c ****   }
  83:Core/Src/i2c.c ****   /* USER CODE BEGIN I2C2_Init 2 */
  84:Core/Src/i2c.c **** 	__HAL_I2C_ENABLE_IT(&hi2c2, I2C_IT_EVT);//ï¿??å¯I2C2ç©ºé—²ä¸­æ–­
 185              		.loc 1 84 2
 186 004c 044B     		ldr	r3, .L8
 187 004e 1B68     		ldr	r3, [r3]
 188 0050 5A68     		ldr	r2, [r3, #4]
 189 0052 034B     		ldr	r3, .L8
 190 0054 1B68     		ldr	r3, [r3]
 191 0056 42F40072 		orr	r2, r2, #512
 192 005a 5A60     		str	r2, [r3, #4]
  85:Core/Src/i2c.c ****   /* USER CODE END I2C2_Init 2 */
  86:Core/Src/i2c.c **** 
  87:Core/Src/i2c.c **** }
 193              		.loc 1 87 1
 194 005c 00BF     		nop
 195 005e 80BD     		pop	{r7, pc}
 196              	.L9:
ARM GAS  C:\Users\Lenovo\AppData\Local\Temp\ccQgXVV6.s 			page 6


 197              		.align	2
 198              	.L8:
 199 0060 00000000 		.word	hi2c2
 200 0064 00580040 		.word	1073764352
 201 0068 A0860100 		.word	100000
 202              		.cfi_endproc
 203              	.LFE66:
 205              		.section	.text.HAL_I2C_MspInit,"ax",%progbits
 206              		.align	1
 207              		.global	HAL_I2C_MspInit
 208              		.syntax unified
 209              		.thumb
 210              		.thumb_func
 212              	HAL_I2C_MspInit:
 213              	.LFB67:
  88:Core/Src/i2c.c **** 
  89:Core/Src/i2c.c **** void HAL_I2C_MspInit(I2C_HandleTypeDef* i2cHandle)
  90:Core/Src/i2c.c **** {
 214              		.loc 1 90 1
 215              		.cfi_startproc
 216              		@ args = 0, pretend = 0, frame = 48
 217              		@ frame_needed = 1, uses_anonymous_args = 0
 218 0000 80B5     		push	{r7, lr}
 219              	.LCFI4:
 220              		.cfi_def_cfa_offset 8
 221              		.cfi_offset 7, -8
 222              		.cfi_offset 14, -4
 223 0002 8CB0     		sub	sp, sp, #48
 224              	.LCFI5:
 225              		.cfi_def_cfa_offset 56
 226 0004 00AF     		add	r7, sp, #0
 227              	.LCFI6:
 228              		.cfi_def_cfa_register 7
 229 0006 7860     		str	r0, [r7, #4]
  91:Core/Src/i2c.c **** 
  92:Core/Src/i2c.c ****   GPIO_InitTypeDef GPIO_InitStruct = {0};
 230              		.loc 1 92 20
 231 0008 07F11C03 		add	r3, r7, #28
 232 000c 0022     		movs	r2, #0
 233 000e 1A60     		str	r2, [r3]
 234 0010 5A60     		str	r2, [r3, #4]
 235 0012 9A60     		str	r2, [r3, #8]
 236 0014 DA60     		str	r2, [r3, #12]
  93:Core/Src/i2c.c ****   if(i2cHandle->Instance==I2C1)
 237              		.loc 1 93 15
 238 0016 7B68     		ldr	r3, [r7, #4]
 239 0018 1B68     		ldr	r3, [r3]
 240              		.loc 1 93 5
 241 001a 3E4A     		ldr	r2, .L14
 242 001c 9342     		cmp	r3, r2
 243 001e 3BD1     		bne	.L11
 244              	.LBB2:
  94:Core/Src/i2c.c ****   {
  95:Core/Src/i2c.c ****   /* USER CODE BEGIN I2C1_MspInit 0 */
  96:Core/Src/i2c.c **** 
  97:Core/Src/i2c.c ****   /* USER CODE END I2C1_MspInit 0 */
  98:Core/Src/i2c.c **** 
ARM GAS  C:\Users\Lenovo\AppData\Local\Temp\ccQgXVV6.s 			page 7


  99:Core/Src/i2c.c ****     __HAL_RCC_GPIOB_CLK_ENABLE();
 245              		.loc 1 99 5
 246 0020 3D4B     		ldr	r3, .L14+4
 247 0022 9B69     		ldr	r3, [r3, #24]
 248 0024 3C4A     		ldr	r2, .L14+4
 249 0026 43F00803 		orr	r3, r3, #8
 250 002a 9361     		str	r3, [r2, #24]
 251 002c 3A4B     		ldr	r3, .L14+4
 252 002e 9B69     		ldr	r3, [r3, #24]
 253 0030 03F00803 		and	r3, r3, #8
 254 0034 BB61     		str	r3, [r7, #24]
 255 0036 BB69     		ldr	r3, [r7, #24]
 256              	.LBE2:
 100:Core/Src/i2c.c ****     /**I2C1 GPIO Configuration
 101:Core/Src/i2c.c ****     PB8     ------> I2C1_SCL
 102:Core/Src/i2c.c ****     PB9     ------> I2C1_SDA
 103:Core/Src/i2c.c ****     */
 104:Core/Src/i2c.c ****     GPIO_InitStruct.Pin = GPIO_PIN_8|GPIO_PIN_9;
 257              		.loc 1 104 25
 258 0038 4FF44073 		mov	r3, #768
 259 003c FB61     		str	r3, [r7, #28]
 105:Core/Src/i2c.c ****     GPIO_InitStruct.Mode = GPIO_MODE_AF_OD;
 260              		.loc 1 105 26
 261 003e 1223     		movs	r3, #18
 262 0040 3B62     		str	r3, [r7, #32]
 106:Core/Src/i2c.c ****     GPIO_InitStruct.Speed = GPIO_SPEED_FREQ_HIGH;
 263              		.loc 1 106 27
 264 0042 0323     		movs	r3, #3
 265 0044 BB62     		str	r3, [r7, #40]
 107:Core/Src/i2c.c ****     HAL_GPIO_Init(GPIOB, &GPIO_InitStruct);
 266              		.loc 1 107 5
 267 0046 07F11C03 		add	r3, r7, #28
 268 004a 1946     		mov	r1, r3
 269 004c 3348     		ldr	r0, .L14+8
 270 004e FFF7FEFF 		bl	HAL_GPIO_Init
 271              	.LBB3:
 108:Core/Src/i2c.c **** 
 109:Core/Src/i2c.c ****     __HAL_AFIO_REMAP_I2C1_ENABLE();
 272              		.loc 1 109 5
 273 0052 334B     		ldr	r3, .L14+12
 274 0054 5B68     		ldr	r3, [r3, #4]
 275 0056 FB62     		str	r3, [r7, #44]
 276 0058 FB6A     		ldr	r3, [r7, #44]
 277 005a 43F0E063 		orr	r3, r3, #117440512
 278 005e FB62     		str	r3, [r7, #44]
 279 0060 FB6A     		ldr	r3, [r7, #44]
 280 0062 43F00203 		orr	r3, r3, #2
 281 0066 FB62     		str	r3, [r7, #44]
 282 0068 2D4A     		ldr	r2, .L14+12
 283 006a FB6A     		ldr	r3, [r7, #44]
 284 006c 5360     		str	r3, [r2, #4]
 285              	.LBE3:
 286              	.LBB4:
 110:Core/Src/i2c.c **** 
 111:Core/Src/i2c.c ****     /* I2C1 clock enable */
 112:Core/Src/i2c.c ****     __HAL_RCC_I2C1_CLK_ENABLE();
 287              		.loc 1 112 5
ARM GAS  C:\Users\Lenovo\AppData\Local\Temp\ccQgXVV6.s 			page 8


 288 006e 2A4B     		ldr	r3, .L14+4
 289 0070 DB69     		ldr	r3, [r3, #28]
 290 0072 294A     		ldr	r2, .L14+4
 291 0074 43F40013 		orr	r3, r3, #2097152
 292 0078 D361     		str	r3, [r2, #28]
 293 007a 274B     		ldr	r3, .L14+4
 294 007c DB69     		ldr	r3, [r3, #28]
 295 007e 03F40013 		and	r3, r3, #2097152
 296 0082 7B61     		str	r3, [r7, #20]
 297 0084 7B69     		ldr	r3, [r7, #20]
 298              	.LBE4:
 113:Core/Src/i2c.c **** 
 114:Core/Src/i2c.c ****     /* I2C1 interrupt Init */
 115:Core/Src/i2c.c ****     HAL_NVIC_SetPriority(I2C1_ER_IRQn, 0, 0);
 299              		.loc 1 115 5
 300 0086 0022     		movs	r2, #0
 301 0088 0021     		movs	r1, #0
 302 008a 2020     		movs	r0, #32
 303 008c FFF7FEFF 		bl	HAL_NVIC_SetPriority
 116:Core/Src/i2c.c ****     HAL_NVIC_EnableIRQ(I2C1_ER_IRQn);
 304              		.loc 1 116 5
 305 0090 2020     		movs	r0, #32
 306 0092 FFF7FEFF 		bl	HAL_NVIC_EnableIRQ
 117:Core/Src/i2c.c ****   /* USER CODE BEGIN I2C1_MspInit 1 */
 118:Core/Src/i2c.c **** 
 119:Core/Src/i2c.c ****   /* USER CODE END I2C1_MspInit 1 */
 120:Core/Src/i2c.c ****   }
 121:Core/Src/i2c.c ****   else if(i2cHandle->Instance==I2C2)
 122:Core/Src/i2c.c ****   {
 123:Core/Src/i2c.c ****   /* USER CODE BEGIN I2C2_MspInit 0 */
 124:Core/Src/i2c.c **** 
 125:Core/Src/i2c.c ****   /* USER CODE END I2C2_MspInit 0 */
 126:Core/Src/i2c.c **** 
 127:Core/Src/i2c.c ****     __HAL_RCC_GPIOB_CLK_ENABLE();
 128:Core/Src/i2c.c ****     /**I2C2 GPIO Configuration
 129:Core/Src/i2c.c ****     PB10     ------> I2C2_SCL
 130:Core/Src/i2c.c ****     PB11     ------> I2C2_SDA
 131:Core/Src/i2c.c ****     */
 132:Core/Src/i2c.c ****     GPIO_InitStruct.Pin = GPIO_PIN_10|GPIO_PIN_11;
 133:Core/Src/i2c.c ****     GPIO_InitStruct.Mode = GPIO_MODE_AF_OD;
 134:Core/Src/i2c.c ****     GPIO_InitStruct.Speed = GPIO_SPEED_FREQ_HIGH;
 135:Core/Src/i2c.c ****     HAL_GPIO_Init(GPIOB, &GPIO_InitStruct);
 136:Core/Src/i2c.c **** 
 137:Core/Src/i2c.c ****     /* I2C2 clock enable */
 138:Core/Src/i2c.c ****     __HAL_RCC_I2C2_CLK_ENABLE();
 139:Core/Src/i2c.c **** 
 140:Core/Src/i2c.c ****     /* I2C2 interrupt Init */
 141:Core/Src/i2c.c ****     HAL_NVIC_SetPriority(I2C2_EV_IRQn, 0, 0);
 142:Core/Src/i2c.c ****     HAL_NVIC_EnableIRQ(I2C2_EV_IRQn);
 143:Core/Src/i2c.c ****     HAL_NVIC_SetPriority(I2C2_ER_IRQn, 0, 0);
 144:Core/Src/i2c.c ****     HAL_NVIC_EnableIRQ(I2C2_ER_IRQn);
 145:Core/Src/i2c.c ****   /* USER CODE BEGIN I2C2_MspInit 1 */
 146:Core/Src/i2c.c **** 
 147:Core/Src/i2c.c ****   /* USER CODE END I2C2_MspInit 1 */
 148:Core/Src/i2c.c ****   }
 149:Core/Src/i2c.c **** }
 307              		.loc 1 149 1
ARM GAS  C:\Users\Lenovo\AppData\Local\Temp\ccQgXVV6.s 			page 9


 308 0096 39E0     		b	.L13
 309              	.L11:
 121:Core/Src/i2c.c ****   {
 310              		.loc 1 121 20
 311 0098 7B68     		ldr	r3, [r7, #4]
 312 009a 1B68     		ldr	r3, [r3]
 121:Core/Src/i2c.c ****   {
 313              		.loc 1 121 10
 314 009c 214A     		ldr	r2, .L14+16
 315 009e 9342     		cmp	r3, r2
 316 00a0 34D1     		bne	.L13
 317              	.LBB5:
 127:Core/Src/i2c.c ****     /**I2C2 GPIO Configuration
 318              		.loc 1 127 5
 319 00a2 1D4B     		ldr	r3, .L14+4
 320 00a4 9B69     		ldr	r3, [r3, #24]
 321 00a6 1C4A     		ldr	r2, .L14+4
 322 00a8 43F00803 		orr	r3, r3, #8
 323 00ac 9361     		str	r3, [r2, #24]
 324 00ae 1A4B     		ldr	r3, .L14+4
 325 00b0 9B69     		ldr	r3, [r3, #24]
 326 00b2 03F00803 		and	r3, r3, #8
 327 00b6 3B61     		str	r3, [r7, #16]
 328 00b8 3B69     		ldr	r3, [r7, #16]
 329              	.LBE5:
 132:Core/Src/i2c.c ****     GPIO_InitStruct.Mode = GPIO_MODE_AF_OD;
 330              		.loc 1 132 25
 331 00ba 4FF44063 		mov	r3, #3072
 332 00be FB61     		str	r3, [r7, #28]
 133:Core/Src/i2c.c ****     GPIO_InitStruct.Speed = GPIO_SPEED_FREQ_HIGH;
 333              		.loc 1 133 26
 334 00c0 1223     		movs	r3, #18
 335 00c2 3B62     		str	r3, [r7, #32]
 134:Core/Src/i2c.c ****     HAL_GPIO_Init(GPIOB, &GPIO_InitStruct);
 336              		.loc 1 134 27
 337 00c4 0323     		movs	r3, #3
 338 00c6 BB62     		str	r3, [r7, #40]
 135:Core/Src/i2c.c **** 
 339              		.loc 1 135 5
 340 00c8 07F11C03 		add	r3, r7, #28
 341 00cc 1946     		mov	r1, r3
 342 00ce 1348     		ldr	r0, .L14+8
 343 00d0 FFF7FEFF 		bl	HAL_GPIO_Init
 344              	.LBB6:
 138:Core/Src/i2c.c **** 
 345              		.loc 1 138 5
 346 00d4 104B     		ldr	r3, .L14+4
 347 00d6 DB69     		ldr	r3, [r3, #28]
 348 00d8 0F4A     		ldr	r2, .L14+4
 349 00da 43F48003 		orr	r3, r3, #4194304
 350 00de D361     		str	r3, [r2, #28]
 351 00e0 0D4B     		ldr	r3, .L14+4
 352 00e2 DB69     		ldr	r3, [r3, #28]
 353 00e4 03F48003 		and	r3, r3, #4194304
 354 00e8 FB60     		str	r3, [r7, #12]
 355 00ea FB68     		ldr	r3, [r7, #12]
 356              	.LBE6:
ARM GAS  C:\Users\Lenovo\AppData\Local\Temp\ccQgXVV6.s 			page 10


 141:Core/Src/i2c.c ****     HAL_NVIC_EnableIRQ(I2C2_EV_IRQn);
 357              		.loc 1 141 5
 358 00ec 0022     		movs	r2, #0
 359 00ee 0021     		movs	r1, #0
 360 00f0 2120     		movs	r0, #33
 361 00f2 FFF7FEFF 		bl	HAL_NVIC_SetPriority
 142:Core/Src/i2c.c ****     HAL_NVIC_SetPriority(I2C2_ER_IRQn, 0, 0);
 362              		.loc 1 142 5
 363 00f6 2120     		movs	r0, #33
 364 00f8 FFF7FEFF 		bl	HAL_NVIC_EnableIRQ
 143:Core/Src/i2c.c ****     HAL_NVIC_EnableIRQ(I2C2_ER_IRQn);
 365              		.loc 1 143 5
 366 00fc 0022     		movs	r2, #0
 367 00fe 0021     		movs	r1, #0
 368 0100 2220     		movs	r0, #34
 369 0102 FFF7FEFF 		bl	HAL_NVIC_SetPriority
 144:Core/Src/i2c.c ****   /* USER CODE BEGIN I2C2_MspInit 1 */
 370              		.loc 1 144 5
 371 0106 2220     		movs	r0, #34
 372 0108 FFF7FEFF 		bl	HAL_NVIC_EnableIRQ
 373              	.L13:
 374              		.loc 1 149 1
 375 010c 00BF     		nop
 376 010e 3037     		adds	r7, r7, #48
 377              	.LCFI7:
 378              		.cfi_def_cfa_offset 8
 379 0110 BD46     		mov	sp, r7
 380              	.LCFI8:
 381              		.cfi_def_cfa_register 13
 382              		@ sp needed
 383 0112 80BD     		pop	{r7, pc}
 384              	.L15:
 385              		.align	2
 386              	.L14:
 387 0114 00540040 		.word	1073763328
 388 0118 00100240 		.word	1073876992
 389 011c 000C0140 		.word	1073810432
 390 0120 00000140 		.word	1073807360
 391 0124 00580040 		.word	1073764352
 392              		.cfi_endproc
 393              	.LFE67:
 395              		.section	.text.HAL_I2C_MspDeInit,"ax",%progbits
 396              		.align	1
 397              		.global	HAL_I2C_MspDeInit
 398              		.syntax unified
 399              		.thumb
 400              		.thumb_func
 402              	HAL_I2C_MspDeInit:
 403              	.LFB68:
 150:Core/Src/i2c.c **** 
 151:Core/Src/i2c.c **** void HAL_I2C_MspDeInit(I2C_HandleTypeDef* i2cHandle)
 152:Core/Src/i2c.c **** {
 404              		.loc 1 152 1
 405              		.cfi_startproc
 406              		@ args = 0, pretend = 0, frame = 8
 407              		@ frame_needed = 1, uses_anonymous_args = 0
 408 0000 80B5     		push	{r7, lr}
ARM GAS  C:\Users\Lenovo\AppData\Local\Temp\ccQgXVV6.s 			page 11


 409              	.LCFI9:
 410              		.cfi_def_cfa_offset 8
 411              		.cfi_offset 7, -8
 412              		.cfi_offset 14, -4
 413 0002 82B0     		sub	sp, sp, #8
 414              	.LCFI10:
 415              		.cfi_def_cfa_offset 16
 416 0004 00AF     		add	r7, sp, #0
 417              	.LCFI11:
 418              		.cfi_def_cfa_register 7
 419 0006 7860     		str	r0, [r7, #4]
 153:Core/Src/i2c.c **** 
 154:Core/Src/i2c.c ****   if(i2cHandle->Instance==I2C1)
 420              		.loc 1 154 15
 421 0008 7B68     		ldr	r3, [r7, #4]
 422 000a 1B68     		ldr	r3, [r3]
 423              		.loc 1 154 5
 424 000c 1A4A     		ldr	r2, .L20
 425 000e 9342     		cmp	r3, r2
 426 0010 13D1     		bne	.L17
 155:Core/Src/i2c.c ****   {
 156:Core/Src/i2c.c ****   /* USER CODE BEGIN I2C1_MspDeInit 0 */
 157:Core/Src/i2c.c **** 
 158:Core/Src/i2c.c ****   /* USER CODE END I2C1_MspDeInit 0 */
 159:Core/Src/i2c.c ****     /* Peripheral clock disable */
 160:Core/Src/i2c.c ****     __HAL_RCC_I2C1_CLK_DISABLE();
 427              		.loc 1 160 5
 428 0012 1A4B     		ldr	r3, .L20+4
 429 0014 DB69     		ldr	r3, [r3, #28]
 430 0016 194A     		ldr	r2, .L20+4
 431 0018 23F40013 		bic	r3, r3, #2097152
 432 001c D361     		str	r3, [r2, #28]
 161:Core/Src/i2c.c **** 
 162:Core/Src/i2c.c ****     /**I2C1 GPIO Configuration
 163:Core/Src/i2c.c ****     PB8     ------> I2C1_SCL
 164:Core/Src/i2c.c ****     PB9     ------> I2C1_SDA
 165:Core/Src/i2c.c ****     */
 166:Core/Src/i2c.c ****     HAL_GPIO_DeInit(GPIOB, GPIO_PIN_8);
 433              		.loc 1 166 5
 434 001e 4FF48071 		mov	r1, #256
 435 0022 1748     		ldr	r0, .L20+8
 436 0024 FFF7FEFF 		bl	HAL_GPIO_DeInit
 167:Core/Src/i2c.c **** 
 168:Core/Src/i2c.c ****     HAL_GPIO_DeInit(GPIOB, GPIO_PIN_9);
 437              		.loc 1 168 5
 438 0028 4FF40071 		mov	r1, #512
 439 002c 1448     		ldr	r0, .L20+8
 440 002e FFF7FEFF 		bl	HAL_GPIO_DeInit
 169:Core/Src/i2c.c **** 
 170:Core/Src/i2c.c ****     /* I2C1 interrupt Deinit */
 171:Core/Src/i2c.c ****     HAL_NVIC_DisableIRQ(I2C1_ER_IRQn);
 441              		.loc 1 171 5
 442 0032 2020     		movs	r0, #32
 443 0034 FFF7FEFF 		bl	HAL_NVIC_DisableIRQ
 172:Core/Src/i2c.c ****   /* USER CODE BEGIN I2C1_MspDeInit 1 */
 173:Core/Src/i2c.c **** 
 174:Core/Src/i2c.c ****   /* USER CODE END I2C1_MspDeInit 1 */
ARM GAS  C:\Users\Lenovo\AppData\Local\Temp\ccQgXVV6.s 			page 12


 175:Core/Src/i2c.c ****   }
 176:Core/Src/i2c.c ****   else if(i2cHandle->Instance==I2C2)
 177:Core/Src/i2c.c ****   {
 178:Core/Src/i2c.c ****   /* USER CODE BEGIN I2C2_MspDeInit 0 */
 179:Core/Src/i2c.c **** 
 180:Core/Src/i2c.c ****   /* USER CODE END I2C2_MspDeInit 0 */
 181:Core/Src/i2c.c ****     /* Peripheral clock disable */
 182:Core/Src/i2c.c ****     __HAL_RCC_I2C2_CLK_DISABLE();
 183:Core/Src/i2c.c **** 
 184:Core/Src/i2c.c ****     /**I2C2 GPIO Configuration
 185:Core/Src/i2c.c ****     PB10     ------> I2C2_SCL
 186:Core/Src/i2c.c ****     PB11     ------> I2C2_SDA
 187:Core/Src/i2c.c ****     */
 188:Core/Src/i2c.c ****     HAL_GPIO_DeInit(GPIOB, GPIO_PIN_10);
 189:Core/Src/i2c.c **** 
 190:Core/Src/i2c.c ****     HAL_GPIO_DeInit(GPIOB, GPIO_PIN_11);
 191:Core/Src/i2c.c **** 
 192:Core/Src/i2c.c ****     /* I2C2 interrupt Deinit */
 193:Core/Src/i2c.c ****     HAL_NVIC_DisableIRQ(I2C2_EV_IRQn);
 194:Core/Src/i2c.c ****     HAL_NVIC_DisableIRQ(I2C2_ER_IRQn);
 195:Core/Src/i2c.c ****   /* USER CODE BEGIN I2C2_MspDeInit 1 */
 196:Core/Src/i2c.c **** 
 197:Core/Src/i2c.c ****   /* USER CODE END I2C2_MspDeInit 1 */
 198:Core/Src/i2c.c ****   }
 199:Core/Src/i2c.c **** }
 444              		.loc 1 199 1
 445 0038 1AE0     		b	.L19
 446              	.L17:
 176:Core/Src/i2c.c ****   {
 447              		.loc 1 176 20
 448 003a 7B68     		ldr	r3, [r7, #4]
 449 003c 1B68     		ldr	r3, [r3]
 176:Core/Src/i2c.c ****   {
 450              		.loc 1 176 10
 451 003e 114A     		ldr	r2, .L20+12
 452 0040 9342     		cmp	r3, r2
 453 0042 15D1     		bne	.L19
 182:Core/Src/i2c.c **** 
 454              		.loc 1 182 5
 455 0044 0D4B     		ldr	r3, .L20+4
 456 0046 DB69     		ldr	r3, [r3, #28]
 457 0048 0C4A     		ldr	r2, .L20+4
 458 004a 23F48003 		bic	r3, r3, #4194304
 459 004e D361     		str	r3, [r2, #28]
 188:Core/Src/i2c.c **** 
 460              		.loc 1 188 5
 461 0050 4FF48061 		mov	r1, #1024
 462 0054 0A48     		ldr	r0, .L20+8
 463 0056 FFF7FEFF 		bl	HAL_GPIO_DeInit
 190:Core/Src/i2c.c **** 
 464              		.loc 1 190 5
 465 005a 4FF40061 		mov	r1, #2048
 466 005e 0848     		ldr	r0, .L20+8
 467 0060 FFF7FEFF 		bl	HAL_GPIO_DeInit
 193:Core/Src/i2c.c ****     HAL_NVIC_DisableIRQ(I2C2_ER_IRQn);
 468              		.loc 1 193 5
 469 0064 2120     		movs	r0, #33
ARM GAS  C:\Users\Lenovo\AppData\Local\Temp\ccQgXVV6.s 			page 13


 470 0066 FFF7FEFF 		bl	HAL_NVIC_DisableIRQ
 194:Core/Src/i2c.c ****   /* USER CODE BEGIN I2C2_MspDeInit 1 */
 471              		.loc 1 194 5
 472 006a 2220     		movs	r0, #34
 473 006c FFF7FEFF 		bl	HAL_NVIC_DisableIRQ
 474              	.L19:
 475              		.loc 1 199 1
 476 0070 00BF     		nop
 477 0072 0837     		adds	r7, r7, #8
 478              	.LCFI12:
 479              		.cfi_def_cfa_offset 8
 480 0074 BD46     		mov	sp, r7
 481              	.LCFI13:
 482              		.cfi_def_cfa_register 13
 483              		@ sp needed
 484 0076 80BD     		pop	{r7, pc}
 485              	.L21:
 486              		.align	2
 487              	.L20:
 488 0078 00540040 		.word	1073763328
 489 007c 00100240 		.word	1073876992
 490 0080 000C0140 		.word	1073810432
 491 0084 00580040 		.word	1073764352
 492              		.cfi_endproc
 493              	.LFE68:
 495              		.section	.text.HAL_I2C_ErrorCallback,"ax",%progbits
 496              		.align	1
 497              		.global	HAL_I2C_ErrorCallback
 498              		.syntax unified
 499              		.thumb
 500              		.thumb_func
 502              	HAL_I2C_ErrorCallback:
 503              	.LFB69:
 200:Core/Src/i2c.c **** 
 201:Core/Src/i2c.c **** /* USER CODE BEGIN 1 */
 202:Core/Src/i2c.c **** 
 203:Core/Src/i2c.c **** void HAL_I2C_ErrorCallback(I2C_HandleTypeDef *hi2c)
 204:Core/Src/i2c.c **** {
 504              		.loc 1 204 1
 505              		.cfi_startproc
 506              		@ args = 0, pretend = 0, frame = 8
 507              		@ frame_needed = 1, uses_anonymous_args = 0
 508              		@ link register save eliminated.
 509 0000 80B4     		push	{r7}
 510              	.LCFI14:
 511              		.cfi_def_cfa_offset 4
 512              		.cfi_offset 7, -4
 513 0002 83B0     		sub	sp, sp, #12
 514              	.LCFI15:
 515              		.cfi_def_cfa_offset 16
 516 0004 00AF     		add	r7, sp, #0
 517              	.LCFI16:
 518              		.cfi_def_cfa_register 7
 519 0006 7860     		str	r0, [r7, #4]
 205:Core/Src/i2c.c ****   if(hi2c==&hi2c2)
 206:Core/Src/i2c.c ****   {
 207:Core/Src/i2c.c **** 		// HAL_I2Cx_ReceiveToIdle_DMA(&huart6, , );
ARM GAS  C:\Users\Lenovo\AppData\Local\Temp\ccQgXVV6.s 			page 14


 208:Core/Src/i2c.c ****   }  
 209:Core/Src/i2c.c **** }
 520              		.loc 1 209 1
 521 0008 00BF     		nop
 522 000a 0C37     		adds	r7, r7, #12
 523              	.LCFI17:
 524              		.cfi_def_cfa_offset 4
 525 000c BD46     		mov	sp, r7
 526              	.LCFI18:
 527              		.cfi_def_cfa_register 13
 528              		@ sp needed
 529 000e 80BC     		pop	{r7}
 530              	.LCFI19:
 531              		.cfi_restore 7
 532              		.cfi_def_cfa_offset 0
 533 0010 7047     		bx	lr
 534              		.cfi_endproc
 535              	.LFE69:
 537              		.text
 538              	.Letext0:
 539              		.file 2 "Drivers/CMSIS/Device/ST/STM32F1xx/Include/stm32f103xe.h"
 540              		.file 3 "d:\\msys64\\mingw64\\arm-none-eabi\\include\\machine\\_default_types.h"
 541              		.file 4 "d:\\msys64\\mingw64\\arm-none-eabi\\include\\sys\\_stdint.h"
 542              		.file 5 "Drivers/STM32F1xx_HAL_Driver/Inc/stm32f1xx_hal_def.h"
 543              		.file 6 "Drivers/STM32F1xx_HAL_Driver/Inc/stm32f1xx_hal_gpio.h"
 544              		.file 7 "Drivers/STM32F1xx_HAL_Driver/Inc/stm32f1xx_hal_dma.h"
 545              		.file 8 "Drivers/STM32F1xx_HAL_Driver/Inc/stm32f1xx_hal_i2c.h"
 546              		.file 9 "Core/Inc/i2c.h"
 547              		.file 10 "Drivers/STM32F1xx_HAL_Driver/Inc/stm32f1xx_hal_cortex.h"
 548              		.file 11 "Core/Inc/main.h"
ARM GAS  C:\Users\Lenovo\AppData\Local\Temp\ccQgXVV6.s 			page 15


DEFINED SYMBOLS
                            *ABS*:0000000000000000 i2c.c
C:\Users\Lenovo\AppData\Local\Temp\ccQgXVV6.s:23     .bss.I2C2_RX_BUF:0000000000000000 I2C2_RX_BUF
C:\Users\Lenovo\AppData\Local\Temp\ccQgXVV6.s:20     .bss.I2C2_RX_BUF:0000000000000000 $d
C:\Users\Lenovo\AppData\Local\Temp\ccQgXVV6.s:30     .bss.hi2c1:0000000000000000 hi2c1
C:\Users\Lenovo\AppData\Local\Temp\ccQgXVV6.s:27     .bss.hi2c1:0000000000000000 $d
C:\Users\Lenovo\AppData\Local\Temp\ccQgXVV6.s:37     .bss.hi2c2:0000000000000000 hi2c2
C:\Users\Lenovo\AppData\Local\Temp\ccQgXVV6.s:34     .bss.hi2c2:0000000000000000 $d
C:\Users\Lenovo\AppData\Local\Temp\ccQgXVV6.s:40     .text.MX_I2C1_Init:0000000000000000 $t
C:\Users\Lenovo\AppData\Local\Temp\ccQgXVV6.s:46     .text.MX_I2C1_Init:0000000000000000 MX_I2C1_Init
C:\Users\Lenovo\AppData\Local\Temp\ccQgXVV6.s:112    .text.MX_I2C1_Init:0000000000000050 $d
C:\Users\Lenovo\AppData\Local\Temp\ccQgXVV6.s:119    .text.MX_I2C2_Init:0000000000000000 $t
C:\Users\Lenovo\AppData\Local\Temp\ccQgXVV6.s:125    .text.MX_I2C2_Init:0000000000000000 MX_I2C2_Init
C:\Users\Lenovo\AppData\Local\Temp\ccQgXVV6.s:199    .text.MX_I2C2_Init:0000000000000060 $d
C:\Users\Lenovo\AppData\Local\Temp\ccQgXVV6.s:206    .text.HAL_I2C_MspInit:0000000000000000 $t
C:\Users\Lenovo\AppData\Local\Temp\ccQgXVV6.s:212    .text.HAL_I2C_MspInit:0000000000000000 HAL_I2C_MspInit
C:\Users\Lenovo\AppData\Local\Temp\ccQgXVV6.s:387    .text.HAL_I2C_MspInit:0000000000000114 $d
C:\Users\Lenovo\AppData\Local\Temp\ccQgXVV6.s:396    .text.HAL_I2C_MspDeInit:0000000000000000 $t
C:\Users\Lenovo\AppData\Local\Temp\ccQgXVV6.s:402    .text.HAL_I2C_MspDeInit:0000000000000000 HAL_I2C_MspDeInit
C:\Users\Lenovo\AppData\Local\Temp\ccQgXVV6.s:488    .text.HAL_I2C_MspDeInit:0000000000000078 $d
C:\Users\Lenovo\AppData\Local\Temp\ccQgXVV6.s:496    .text.HAL_I2C_ErrorCallback:0000000000000000 $t
C:\Users\Lenovo\AppData\Local\Temp\ccQgXVV6.s:502    .text.HAL_I2C_ErrorCallback:0000000000000000 HAL_I2C_ErrorCallback

UNDEFINED SYMBOLS
HAL_I2C_Init
Error_Handler
HAL_GPIO_Init
HAL_NVIC_SetPriority
HAL_NVIC_EnableIRQ
HAL_GPIO_DeInit
HAL_NVIC_DisableIRQ
