ARM GAS  C:\Users\Lenovo\AppData\Local\Temp\cc6BOKEM.s 			page 1


   1              		.cpu cortex-m3
   2              		.arch armv7-m
   3              		.fpu softvfp
   4              		.eabi_attribute 20, 1
   5              		.eabi_attribute 21, 1
   6              		.eabi_attribute 23, 3
   7              		.eabi_attribute 24, 1
   8              		.eabi_attribute 25, 1
   9              		.eabi_attribute 26, 1
  10              		.eabi_attribute 30, 1
  11              		.eabi_attribute 34, 1
  12              		.eabi_attribute 18, 4
  13              		.file	"oled.c"
  14              		.text
  15              	.Ltext0:
  16              		.cfi_sections	.debug_frame
  17              		.file 1 "BBBOOM/Src/oled.c"
  18              		.section	.text.I2C_WaitAck,"ax",%progbits
  19              		.align	1
  20              		.global	I2C_WaitAck
  21              		.syntax unified
  22              		.thumb
  23              		.thumb_func
  25              	I2C_WaitAck:
  26              	.LFB67:
   1:BBBOOM/Src/oled.c **** #include "oled.h"
   2:BBBOOM/Src/oled.c **** #include "stdint.h"
   3:BBBOOM/Src/oled.c **** #include "oledfont.h"  	 
   4:BBBOOM/Src/oled.c **** #include "i2c.h"
   5:BBBOOM/Src/oled.c **** 
   6:BBBOOM/Src/oled.c **** u8 OLED_GRAM[144][8];
   7:BBBOOM/Src/oled.c **** 
   8:BBBOOM/Src/oled.c **** //反显函数
   9:BBBOOM/Src/oled.c **** void OLED_ColorTurn(u8 i)
  10:BBBOOM/Src/oled.c **** {
  11:BBBOOM/Src/oled.c **** 	if(i==0)
  12:BBBOOM/Src/oled.c **** 		{
  13:BBBOOM/Src/oled.c **** 			OLED_WR_Byte(0xA6,OLED_CMD);//正常显示
  14:BBBOOM/Src/oled.c **** 		}
  15:BBBOOM/Src/oled.c **** 	if(i==1)
  16:BBBOOM/Src/oled.c **** 		{
  17:BBBOOM/Src/oled.c **** 			OLED_WR_Byte(0xA7,OLED_CMD);//反色显示
  18:BBBOOM/Src/oled.c **** 		}
  19:BBBOOM/Src/oled.c **** }
  20:BBBOOM/Src/oled.c **** 
  21:BBBOOM/Src/oled.c **** //屏幕旋转180度
  22:BBBOOM/Src/oled.c **** void OLED_DisplayTurn(u8 i)
  23:BBBOOM/Src/oled.c **** {
  24:BBBOOM/Src/oled.c **** 	if(i==0)
  25:BBBOOM/Src/oled.c **** 		{
  26:BBBOOM/Src/oled.c **** 			OLED_WR_Byte(0xC8,OLED_CMD);//正常显示
  27:BBBOOM/Src/oled.c **** 			OLED_WR_Byte(0xA1,OLED_CMD);
  28:BBBOOM/Src/oled.c **** 		}
  29:BBBOOM/Src/oled.c **** 	if(i==1)
  30:BBBOOM/Src/oled.c **** 		{
  31:BBBOOM/Src/oled.c **** 			OLED_WR_Byte(0xC0,OLED_CMD);//反转显示
  32:BBBOOM/Src/oled.c **** 			OLED_WR_Byte(0xA0,OLED_CMD);
ARM GAS  C:\Users\Lenovo\AppData\Local\Temp\cc6BOKEM.s 			page 2


  33:BBBOOM/Src/oled.c **** 		}
  34:BBBOOM/Src/oled.c **** }
  35:BBBOOM/Src/oled.c **** 
  36:BBBOOM/Src/oled.c **** //等待信号响应
  37:BBBOOM/Src/oled.c **** void I2C_WaitAck(void) //测数据信号的电平
  38:BBBOOM/Src/oled.c **** {
  27              		.loc 1 38 1 view -0
  28              		.cfi_startproc
  29              		@ args = 0, pretend = 0, frame = 0
  30              		@ frame_needed = 0, uses_anonymous_args = 0
  31 0000 08B5     		push	{r3, lr}
  32              	.LCFI0:
  33              		.cfi_def_cfa_offset 8
  34              		.cfi_offset 3, -8
  35              		.cfi_offset 14, -4
  39:BBBOOM/Src/oled.c **** 	OLED_SDA_Set();
  36              		.loc 1 39 2 view .LVU1
  37 0002 FFF7FEFF 		bl	OLED_SDA_Set
  38              	.LVL0:
  40:BBBOOM/Src/oled.c **** 	IIC_delay();
  39              		.loc 1 40 2 view .LVU2
  40 0006 FFF7FEFF 		bl	IIC_delay
  41              	.LVL1:
  41:BBBOOM/Src/oled.c **** 	OLED_SCL_Set();
  42              		.loc 1 41 2 view .LVU3
  43 000a FFF7FEFF 		bl	OLED_SCL_Set
  44              	.LVL2:
  42:BBBOOM/Src/oled.c **** 	IIC_delay();
  45              		.loc 1 42 2 view .LVU4
  46 000e FFF7FEFF 		bl	IIC_delay
  47              	.LVL3:
  43:BBBOOM/Src/oled.c **** 	OLED_SCL_Clr();
  48              		.loc 1 43 2 view .LVU5
  49 0012 FFF7FEFF 		bl	OLED_SCL_Clr
  50              	.LVL4:
  44:BBBOOM/Src/oled.c **** 	IIC_delay();
  51              		.loc 1 44 2 view .LVU6
  52 0016 FFF7FEFF 		bl	IIC_delay
  53              	.LVL5:
  45:BBBOOM/Src/oled.c **** }
  54              		.loc 1 45 1 is_stmt 0 view .LVU7
  55 001a 08BD     		pop	{r3, pc}
  56              		.cfi_endproc
  57              	.LFE67:
  59              		.section	.text.OLED_WR_Byte,"ax",%progbits
  60              		.align	1
  61              		.global	OLED_WR_Byte
  62              		.syntax unified
  63              		.thumb
  64              		.thumb_func
  66              	OLED_WR_Byte:
  67              	.LVL6:
  68              	.LFB68:
  46:BBBOOM/Src/oled.c **** 
  47:BBBOOM/Src/oled.c **** 
  48:BBBOOM/Src/oled.c **** 
  49:BBBOOM/Src/oled.c **** //发送一个字节
ARM GAS  C:\Users\Lenovo\AppData\Local\Temp\cc6BOKEM.s 			page 3


  50:BBBOOM/Src/oled.c **** //mode:数据/命令标志 0,表示命令;1,表示数据;
  51:BBBOOM/Src/oled.c **** void OLED_WR_Byte(u8 dat,u8 mode)
  52:BBBOOM/Src/oled.c **** {
  69              		.loc 1 52 1 is_stmt 1 view -0
  70              		.cfi_startproc
  71              		@ args = 0, pretend = 0, frame = 8
  72              		@ frame_needed = 0, uses_anonymous_args = 0
  73              		.loc 1 52 1 is_stmt 0 view .LVU9
  74 0000 00B5     		push	{lr}
  75              	.LCFI1:
  76              		.cfi_def_cfa_offset 4
  77              		.cfi_offset 14, -4
  78 0002 87B0     		sub	sp, sp, #28
  79              	.LCFI2:
  80              		.cfi_def_cfa_offset 32
  81 0004 8DF81700 		strb	r0, [sp, #23]
  53:BBBOOM/Src/oled.c **** 	if(mode)
  82              		.loc 1 53 2 is_stmt 1 view .LVU10
  83              		.loc 1 53 4 is_stmt 0 view .LVU11
  84 0008 79B1     		cbz	r1, .L4
  54:BBBOOM/Src/oled.c **** 		HAL_I2C_Mem_Write(&hi2c1,0x78,0x40,I2C_MEMADD_SIZE_8BIT,&dat,1,0x100);
  85              		.loc 1 54 3 is_stmt 1 view .LVU12
  86 000a 4FF48073 		mov	r3, #256
  87 000e 0293     		str	r3, [sp, #8]
  88 0010 0123     		movs	r3, #1
  89 0012 0193     		str	r3, [sp, #4]
  90 0014 0DF11702 		add	r2, sp, #23
  91 0018 0092     		str	r2, [sp]
  92 001a 4022     		movs	r2, #64
  93 001c 7821     		movs	r1, #120
  94              	.LVL7:
  95              		.loc 1 54 3 is_stmt 0 view .LVU13
  96 001e 0A48     		ldr	r0, .L7
  97              	.LVL8:
  98              		.loc 1 54 3 view .LVU14
  99 0020 FFF7FEFF 		bl	HAL_I2C_Mem_Write
 100              	.LVL9:
 101              	.L3:
  55:BBBOOM/Src/oled.c **** 
  56:BBBOOM/Src/oled.c ****   else
  57:BBBOOM/Src/oled.c **** 		HAL_I2C_Mem_Write(&hi2c1,0x78,0x00,I2C_MEMADD_SIZE_8BIT,&dat,1,0x100);
  58:BBBOOM/Src/oled.c **** }
 102              		.loc 1 58 1 view .LVU15
 103 0024 07B0     		add	sp, sp, #28
 104              	.LCFI3:
 105              		.cfi_remember_state
 106              		.cfi_def_cfa_offset 4
 107              		@ sp needed
 108 0026 5DF804FB 		ldr	pc, [sp], #4
 109              	.LVL10:
 110              	.L4:
 111              	.LCFI4:
 112              		.cfi_restore_state
  57:BBBOOM/Src/oled.c **** }
 113              		.loc 1 57 3 is_stmt 1 view .LVU16
 114 002a 4FF48073 		mov	r3, #256
 115 002e 0293     		str	r3, [sp, #8]
ARM GAS  C:\Users\Lenovo\AppData\Local\Temp\cc6BOKEM.s 			page 4


 116 0030 0123     		movs	r3, #1
 117 0032 0193     		str	r3, [sp, #4]
 118 0034 0DF11702 		add	r2, sp, #23
 119 0038 0092     		str	r2, [sp]
 120 003a 0022     		movs	r2, #0
 121 003c 7821     		movs	r1, #120
 122              	.LVL11:
  57:BBBOOM/Src/oled.c **** }
 123              		.loc 1 57 3 is_stmt 0 view .LVU17
 124 003e 0248     		ldr	r0, .L7
 125              	.LVL12:
  57:BBBOOM/Src/oled.c **** }
 126              		.loc 1 57 3 view .LVU18
 127 0040 FFF7FEFF 		bl	HAL_I2C_Mem_Write
 128              	.LVL13:
 129              		.loc 1 58 1 view .LVU19
 130 0044 EEE7     		b	.L3
 131              	.L8:
 132 0046 00BF     		.align	2
 133              	.L7:
 134 0048 00000000 		.word	hi2c1
 135              		.cfi_endproc
 136              	.LFE68:
 138              		.section	.text.OLED_ColorTurn,"ax",%progbits
 139              		.align	1
 140              		.global	OLED_ColorTurn
 141              		.syntax unified
 142              		.thumb
 143              		.thumb_func
 145              	OLED_ColorTurn:
 146              	.LVL14:
 147              	.LFB65:
  10:BBBOOM/Src/oled.c **** 	if(i==0)
 148              		.loc 1 10 1 is_stmt 1 view -0
 149              		.cfi_startproc
 150              		@ args = 0, pretend = 0, frame = 0
 151              		@ frame_needed = 0, uses_anonymous_args = 0
  10:BBBOOM/Src/oled.c **** 	if(i==0)
 152              		.loc 1 10 1 is_stmt 0 view .LVU21
 153 0000 10B5     		push	{r4, lr}
 154              	.LCFI5:
 155              		.cfi_def_cfa_offset 8
 156              		.cfi_offset 4, -8
 157              		.cfi_offset 14, -4
  11:BBBOOM/Src/oled.c **** 		{
 158              		.loc 1 11 2 is_stmt 1 view .LVU22
  11:BBBOOM/Src/oled.c **** 		{
 159              		.loc 1 11 4 is_stmt 0 view .LVU23
 160 0002 0446     		mov	r4, r0
 161 0004 10B1     		cbz	r0, .L13
 162              	.LVL15:
 163              	.L10:
  15:BBBOOM/Src/oled.c **** 		{
 164              		.loc 1 15 2 is_stmt 1 view .LVU24
  15:BBBOOM/Src/oled.c **** 		{
 165              		.loc 1 15 4 is_stmt 0 view .LVU25
 166 0006 012C     		cmp	r4, #1
ARM GAS  C:\Users\Lenovo\AppData\Local\Temp\cc6BOKEM.s 			page 5


 167 0008 05D0     		beq	.L14
 168              	.L9:
  19:BBBOOM/Src/oled.c **** 
 169              		.loc 1 19 1 view .LVU26
 170 000a 10BD     		pop	{r4, pc}
 171              	.LVL16:
 172              	.L13:
  13:BBBOOM/Src/oled.c **** 		}
 173              		.loc 1 13 4 is_stmt 1 view .LVU27
 174 000c 0021     		movs	r1, #0
 175 000e A620     		movs	r0, #166
 176              	.LVL17:
  13:BBBOOM/Src/oled.c **** 		}
 177              		.loc 1 13 4 is_stmt 0 view .LVU28
 178 0010 FFF7FEFF 		bl	OLED_WR_Byte
 179              	.LVL18:
 180 0014 F7E7     		b	.L10
 181              	.L14:
  17:BBBOOM/Src/oled.c **** 		}
 182              		.loc 1 17 4 is_stmt 1 view .LVU29
 183 0016 0021     		movs	r1, #0
 184 0018 A720     		movs	r0, #167
 185 001a FFF7FEFF 		bl	OLED_WR_Byte
 186              	.LVL19:
  19:BBBOOM/Src/oled.c **** 
 187              		.loc 1 19 1 is_stmt 0 view .LVU30
 188 001e F4E7     		b	.L9
 189              		.cfi_endproc
 190              	.LFE65:
 192              		.section	.text.OLED_DisplayTurn,"ax",%progbits
 193              		.align	1
 194              		.global	OLED_DisplayTurn
 195              		.syntax unified
 196              		.thumb
 197              		.thumb_func
 199              	OLED_DisplayTurn:
 200              	.LVL20:
 201              	.LFB66:
  23:BBBOOM/Src/oled.c **** 	if(i==0)
 202              		.loc 1 23 1 is_stmt 1 view -0
 203              		.cfi_startproc
 204              		@ args = 0, pretend = 0, frame = 0
 205              		@ frame_needed = 0, uses_anonymous_args = 0
  23:BBBOOM/Src/oled.c **** 	if(i==0)
 206              		.loc 1 23 1 is_stmt 0 view .LVU32
 207 0000 10B5     		push	{r4, lr}
 208              	.LCFI6:
 209              		.cfi_def_cfa_offset 8
 210              		.cfi_offset 4, -8
 211              		.cfi_offset 14, -4
  24:BBBOOM/Src/oled.c **** 		{
 212              		.loc 1 24 2 is_stmt 1 view .LVU33
  24:BBBOOM/Src/oled.c **** 		{
 213              		.loc 1 24 4 is_stmt 0 view .LVU34
 214 0002 0446     		mov	r4, r0
 215 0004 10B1     		cbz	r0, .L19
 216              	.LVL21:
ARM GAS  C:\Users\Lenovo\AppData\Local\Temp\cc6BOKEM.s 			page 6


 217              	.L16:
  29:BBBOOM/Src/oled.c **** 		{
 218              		.loc 1 29 2 is_stmt 1 view .LVU35
  29:BBBOOM/Src/oled.c **** 		{
 219              		.loc 1 29 4 is_stmt 0 view .LVU36
 220 0006 012C     		cmp	r4, #1
 221 0008 09D0     		beq	.L20
 222              	.L15:
  34:BBBOOM/Src/oled.c **** 
 223              		.loc 1 34 1 view .LVU37
 224 000a 10BD     		pop	{r4, pc}
 225              	.LVL22:
 226              	.L19:
  26:BBBOOM/Src/oled.c **** 			OLED_WR_Byte(0xA1,OLED_CMD);
 227              		.loc 1 26 4 is_stmt 1 view .LVU38
 228 000c 0021     		movs	r1, #0
 229 000e C820     		movs	r0, #200
 230              	.LVL23:
  26:BBBOOM/Src/oled.c **** 			OLED_WR_Byte(0xA1,OLED_CMD);
 231              		.loc 1 26 4 is_stmt 0 view .LVU39
 232 0010 FFF7FEFF 		bl	OLED_WR_Byte
 233              	.LVL24:
  27:BBBOOM/Src/oled.c **** 		}
 234              		.loc 1 27 4 is_stmt 1 view .LVU40
 235 0014 0021     		movs	r1, #0
 236 0016 A120     		movs	r0, #161
 237 0018 FFF7FEFF 		bl	OLED_WR_Byte
 238              	.LVL25:
 239 001c F3E7     		b	.L16
 240              	.L20:
  31:BBBOOM/Src/oled.c **** 			OLED_WR_Byte(0xA0,OLED_CMD);
 241              		.loc 1 31 4 view .LVU41
 242 001e 0021     		movs	r1, #0
 243 0020 C020     		movs	r0, #192
 244 0022 FFF7FEFF 		bl	OLED_WR_Byte
 245              	.LVL26:
  32:BBBOOM/Src/oled.c **** 		}
 246              		.loc 1 32 4 view .LVU42
 247 0026 0021     		movs	r1, #0
 248 0028 A020     		movs	r0, #160
 249 002a FFF7FEFF 		bl	OLED_WR_Byte
 250              	.LVL27:
  34:BBBOOM/Src/oled.c **** 
 251              		.loc 1 34 1 is_stmt 0 view .LVU43
 252 002e ECE7     		b	.L15
 253              		.cfi_endproc
 254              	.LFE66:
 256              		.section	.text.OLED_DisPlay_On,"ax",%progbits
 257              		.align	1
 258              		.global	OLED_DisPlay_On
 259              		.syntax unified
 260              		.thumb
 261              		.thumb_func
 263              	OLED_DisPlay_On:
 264              	.LFB69:
  59:BBBOOM/Src/oled.c **** 
  60:BBBOOM/Src/oled.c **** //开启OLED显示 
ARM GAS  C:\Users\Lenovo\AppData\Local\Temp\cc6BOKEM.s 			page 7


  61:BBBOOM/Src/oled.c **** void OLED_DisPlay_On(void)
  62:BBBOOM/Src/oled.c **** {
 265              		.loc 1 62 1 is_stmt 1 view -0
 266              		.cfi_startproc
 267              		@ args = 0, pretend = 0, frame = 0
 268              		@ frame_needed = 0, uses_anonymous_args = 0
 269 0000 08B5     		push	{r3, lr}
 270              	.LCFI7:
 271              		.cfi_def_cfa_offset 8
 272              		.cfi_offset 3, -8
 273              		.cfi_offset 14, -4
  63:BBBOOM/Src/oled.c **** 	OLED_WR_Byte(0x8D,OLED_CMD);//电荷泵使能
 274              		.loc 1 63 2 view .LVU45
 275 0002 0021     		movs	r1, #0
 276 0004 8D20     		movs	r0, #141
 277 0006 FFF7FEFF 		bl	OLED_WR_Byte
 278              	.LVL28:
  64:BBBOOM/Src/oled.c **** 	OLED_WR_Byte(0x14,OLED_CMD);//开启电荷泵
 279              		.loc 1 64 2 view .LVU46
 280 000a 0021     		movs	r1, #0
 281 000c 1420     		movs	r0, #20
 282 000e FFF7FEFF 		bl	OLED_WR_Byte
 283              	.LVL29:
  65:BBBOOM/Src/oled.c **** 	OLED_WR_Byte(0xAF,OLED_CMD);//点亮屏幕
 284              		.loc 1 65 2 view .LVU47
 285 0012 0021     		movs	r1, #0
 286 0014 AF20     		movs	r0, #175
 287 0016 FFF7FEFF 		bl	OLED_WR_Byte
 288              	.LVL30:
  66:BBBOOM/Src/oled.c **** }
 289              		.loc 1 66 1 is_stmt 0 view .LVU48
 290 001a 08BD     		pop	{r3, pc}
 291              		.cfi_endproc
 292              	.LFE69:
 294              		.section	.text.OLED_DisPlay_Off,"ax",%progbits
 295              		.align	1
 296              		.global	OLED_DisPlay_Off
 297              		.syntax unified
 298              		.thumb
 299              		.thumb_func
 301              	OLED_DisPlay_Off:
 302              	.LFB70:
  67:BBBOOM/Src/oled.c **** 
  68:BBBOOM/Src/oled.c **** //关闭OLED显示 
  69:BBBOOM/Src/oled.c **** void OLED_DisPlay_Off(void)
  70:BBBOOM/Src/oled.c **** {
 303              		.loc 1 70 1 is_stmt 1 view -0
 304              		.cfi_startproc
 305              		@ args = 0, pretend = 0, frame = 0
 306              		@ frame_needed = 0, uses_anonymous_args = 0
 307 0000 08B5     		push	{r3, lr}
 308              	.LCFI8:
 309              		.cfi_def_cfa_offset 8
 310              		.cfi_offset 3, -8
 311              		.cfi_offset 14, -4
  71:BBBOOM/Src/oled.c **** 	OLED_WR_Byte(0x8D,OLED_CMD);//电荷泵使能
 312              		.loc 1 71 2 view .LVU50
ARM GAS  C:\Users\Lenovo\AppData\Local\Temp\cc6BOKEM.s 			page 8


 313 0002 0021     		movs	r1, #0
 314 0004 8D20     		movs	r0, #141
 315 0006 FFF7FEFF 		bl	OLED_WR_Byte
 316              	.LVL31:
  72:BBBOOM/Src/oled.c **** 	OLED_WR_Byte(0x10,OLED_CMD);//关闭电荷泵
 317              		.loc 1 72 2 view .LVU51
 318 000a 0021     		movs	r1, #0
 319 000c 1020     		movs	r0, #16
 320 000e FFF7FEFF 		bl	OLED_WR_Byte
 321              	.LVL32:
  73:BBBOOM/Src/oled.c **** 	OLED_WR_Byte(0xAE,OLED_CMD);//关闭屏幕
 322              		.loc 1 73 2 view .LVU52
 323 0012 0021     		movs	r1, #0
 324 0014 AE20     		movs	r0, #174
 325 0016 FFF7FEFF 		bl	OLED_WR_Byte
 326              	.LVL33:
  74:BBBOOM/Src/oled.c **** }
 327              		.loc 1 74 1 is_stmt 0 view .LVU53
 328 001a 08BD     		pop	{r3, pc}
 329              		.cfi_endproc
 330              	.LFE70:
 332              		.section	.text.OLED_Refresh,"ax",%progbits
 333              		.align	1
 334              		.global	OLED_Refresh
 335              		.syntax unified
 336              		.thumb
 337              		.thumb_func
 339              	OLED_Refresh:
 340              	.LFB71:
  75:BBBOOM/Src/oled.c **** 
  76:BBBOOM/Src/oled.c **** //更新显存到OLED	
  77:BBBOOM/Src/oled.c **** void OLED_Refresh(void)
  78:BBBOOM/Src/oled.c **** {
 341              		.loc 1 78 1 is_stmt 1 view -0
 342              		.cfi_startproc
 343              		@ args = 0, pretend = 0, frame = 0
 344              		@ frame_needed = 0, uses_anonymous_args = 0
 345 0000 38B5     		push	{r3, r4, r5, lr}
 346              	.LCFI9:
 347              		.cfi_def_cfa_offset 16
 348              		.cfi_offset 3, -16
 349              		.cfi_offset 4, -12
 350              		.cfi_offset 5, -8
 351              		.cfi_offset 14, -4
  79:BBBOOM/Src/oled.c **** 	u8 i,n;
 352              		.loc 1 79 2 view .LVU55
  80:BBBOOM/Src/oled.c **** 	for(i=0;i<8;i++)
 353              		.loc 1 80 2 view .LVU56
 354              	.LVL34:
 355              		.loc 1 80 7 is_stmt 0 view .LVU57
 356 0002 0025     		movs	r5, #0
 357              		.loc 1 80 2 view .LVU58
 358 0004 0DE0     		b	.L26
 359              	.LVL35:
 360              	.L28:
  81:BBBOOM/Src/oled.c **** 	{
  82:BBBOOM/Src/oled.c **** 		OLED_WR_Byte(0xb0+i,OLED_CMD); //设置行起始地址
ARM GAS  C:\Users\Lenovo\AppData\Local\Temp\cc6BOKEM.s 			page 9


  83:BBBOOM/Src/oled.c **** 		OLED_WR_Byte(0x00,OLED_CMD);   //设置低列起始地址
  84:BBBOOM/Src/oled.c **** 		OLED_WR_Byte(0x10,OLED_CMD);   //设置高列起始地址
  85:BBBOOM/Src/oled.c **** 		for(n=0;n<128;n++)
  86:BBBOOM/Src/oled.c **** 		{
  87:BBBOOM/Src/oled.c ****             OLED_WR_Byte(OLED_GRAM[n][i],OLED_DATA);
 361              		.loc 1 87 13 is_stmt 1 discriminator 3 view .LVU59
 362 0006 104B     		ldr	r3, .L32
 363 0008 03EBC403 		add	r3, r3, r4, lsl #3
 364 000c 0121     		movs	r1, #1
 365 000e 585D     		ldrb	r0, [r3, r5]	@ zero_extendqisi2
 366 0010 FFF7FEFF 		bl	OLED_WR_Byte
 367              	.LVL36:
  85:BBBOOM/Src/oled.c **** 		{
 368              		.loc 1 85 18 discriminator 3 view .LVU60
 369 0014 0134     		adds	r4, r4, #1
 370              	.LVL37:
  85:BBBOOM/Src/oled.c **** 		{
 371              		.loc 1 85 18 is_stmt 0 discriminator 3 view .LVU61
 372 0016 E4B2     		uxtb	r4, r4
 373              	.LVL38:
 374              	.L27:
  85:BBBOOM/Src/oled.c **** 		{
 375              		.loc 1 85 12 is_stmt 1 discriminator 1 view .LVU62
 376 0018 14F0800F 		tst	r4, #128
 377 001c F3D0     		beq	.L28
  80:BBBOOM/Src/oled.c **** 	for(i=0;i<8;i++)
 378              		.loc 1 80 15 discriminator 2 view .LVU63
 379 001e 0135     		adds	r5, r5, #1
 380              	.LVL39:
  80:BBBOOM/Src/oled.c **** 	for(i=0;i<8;i++)
 381              		.loc 1 80 15 is_stmt 0 discriminator 2 view .LVU64
 382 0020 EDB2     		uxtb	r5, r5
 383              	.LVL40:
 384              	.L26:
  80:BBBOOM/Src/oled.c **** 	for(i=0;i<8;i++)
 385              		.loc 1 80 11 is_stmt 1 discriminator 1 view .LVU65
 386 0022 072D     		cmp	r5, #7
 387 0024 0FD8     		bhi	.L31
  82:BBBOOM/Src/oled.c **** 		OLED_WR_Byte(0x00,OLED_CMD);   //设置低列起始地址
 388              		.loc 1 82 3 view .LVU66
 389 0026 A5F15000 		sub	r0, r5, #80
 390 002a 0021     		movs	r1, #0
 391 002c C0B2     		uxtb	r0, r0
 392 002e FFF7FEFF 		bl	OLED_WR_Byte
 393              	.LVL41:
  83:BBBOOM/Src/oled.c **** 		OLED_WR_Byte(0x10,OLED_CMD);   //设置高列起始地址
 394              		.loc 1 83 3 view .LVU67
 395 0032 0021     		movs	r1, #0
 396 0034 0846     		mov	r0, r1
 397 0036 FFF7FEFF 		bl	OLED_WR_Byte
 398              	.LVL42:
  84:BBBOOM/Src/oled.c **** 		for(n=0;n<128;n++)
 399              		.loc 1 84 3 view .LVU68
 400 003a 0021     		movs	r1, #0
 401 003c 1020     		movs	r0, #16
 402 003e FFF7FEFF 		bl	OLED_WR_Byte
 403              	.LVL43:
ARM GAS  C:\Users\Lenovo\AppData\Local\Temp\cc6BOKEM.s 			page 10


  85:BBBOOM/Src/oled.c **** 		{
 404              		.loc 1 85 3 view .LVU69
  85:BBBOOM/Src/oled.c **** 		{
 405              		.loc 1 85 8 is_stmt 0 view .LVU70
 406 0042 0024     		movs	r4, #0
  85:BBBOOM/Src/oled.c **** 		{
 407              		.loc 1 85 3 view .LVU71
 408 0044 E8E7     		b	.L27
 409              	.LVL44:
 410              	.L31:
  88:BBBOOM/Src/oled.c **** 		}
  89:BBBOOM/Src/oled.c ****   }
  90:BBBOOM/Src/oled.c **** }
 411              		.loc 1 90 1 view .LVU72
 412 0046 38BD     		pop	{r3, r4, r5, pc}
 413              	.LVL45:
 414              	.L33:
 415              		.loc 1 90 1 view .LVU73
 416              		.align	2
 417              	.L32:
 418 0048 00000000 		.word	OLED_GRAM
 419              		.cfi_endproc
 420              	.LFE71:
 422              		.section	.text.OLED_Clear,"ax",%progbits
 423              		.align	1
 424              		.global	OLED_Clear
 425              		.syntax unified
 426              		.thumb
 427              		.thumb_func
 429              	OLED_Clear:
 430              	.LFB72:
  91:BBBOOM/Src/oled.c **** 
  92:BBBOOM/Src/oled.c **** //清屏函数
  93:BBBOOM/Src/oled.c **** void OLED_Clear(void)
  94:BBBOOM/Src/oled.c **** {
 431              		.loc 1 94 1 is_stmt 1 view -0
 432              		.cfi_startproc
 433              		@ args = 0, pretend = 0, frame = 0
 434              		@ frame_needed = 0, uses_anonymous_args = 0
 435 0000 08B5     		push	{r3, lr}
 436              	.LCFI10:
 437              		.cfi_def_cfa_offset 8
 438              		.cfi_offset 3, -8
 439              		.cfi_offset 14, -4
  95:BBBOOM/Src/oled.c **** 	u8 i,n;
 440              		.loc 1 95 2 view .LVU75
  96:BBBOOM/Src/oled.c **** 	for(i=0;i<8;i++)
 441              		.loc 1 96 2 view .LVU76
 442              	.LVL46:
 443              		.loc 1 96 7 is_stmt 0 view .LVU77
 444 0002 0020     		movs	r0, #0
 445              		.loc 1 96 2 view .LVU78
 446 0004 0BE0     		b	.L35
 447              	.LVL47:
 448              	.L36:
  97:BBBOOM/Src/oled.c **** 	{
  98:BBBOOM/Src/oled.c **** 	   for(n=0;n<128;n++)
ARM GAS  C:\Users\Lenovo\AppData\Local\Temp\cc6BOKEM.s 			page 11


  99:BBBOOM/Src/oled.c **** 			{
 100:BBBOOM/Src/oled.c **** 			 OLED_GRAM[n][i]=0;//清除所有数据
 449              		.loc 1 100 5 is_stmt 1 discriminator 3 view .LVU79
 450              		.loc 1 100 20 is_stmt 0 discriminator 3 view .LVU80
 451 0006 094A     		ldr	r2, .L41
 452 0008 02EBC302 		add	r2, r2, r3, lsl #3
 453 000c 0021     		movs	r1, #0
 454 000e 1154     		strb	r1, [r2, r0]
  98:BBBOOM/Src/oled.c **** 			{
 455              		.loc 1 98 20 is_stmt 1 discriminator 3 view .LVU81
 456 0010 0133     		adds	r3, r3, #1
 457              	.LVL48:
  98:BBBOOM/Src/oled.c **** 			{
 458              		.loc 1 98 20 is_stmt 0 discriminator 3 view .LVU82
 459 0012 DBB2     		uxtb	r3, r3
 460              	.LVL49:
 461              	.L37:
  98:BBBOOM/Src/oled.c **** 			{
 462              		.loc 1 98 14 is_stmt 1 discriminator 1 view .LVU83
 463 0014 13F0800F 		tst	r3, #128
 464 0018 F5D0     		beq	.L36
  96:BBBOOM/Src/oled.c **** 	for(i=0;i<8;i++)
 465              		.loc 1 96 15 discriminator 2 view .LVU84
 466 001a 0130     		adds	r0, r0, #1
 467              	.LVL50:
  96:BBBOOM/Src/oled.c **** 	for(i=0;i<8;i++)
 468              		.loc 1 96 15 is_stmt 0 discriminator 2 view .LVU85
 469 001c C0B2     		uxtb	r0, r0
 470              	.LVL51:
 471              	.L35:
  96:BBBOOM/Src/oled.c **** 	for(i=0;i<8;i++)
 472              		.loc 1 96 11 is_stmt 1 discriminator 1 view .LVU86
 473 001e 0728     		cmp	r0, #7
 474 0020 01D8     		bhi	.L40
  98:BBBOOM/Src/oled.c **** 			{
 475              		.loc 1 98 10 is_stmt 0 view .LVU87
 476 0022 0023     		movs	r3, #0
 477 0024 F6E7     		b	.L37
 478              	.L40:
 101:BBBOOM/Src/oled.c **** 			}
 102:BBBOOM/Src/oled.c ****   }
 103:BBBOOM/Src/oled.c **** 	OLED_Refresh();//更新显示
 479              		.loc 1 103 2 is_stmt 1 view .LVU88
 480 0026 FFF7FEFF 		bl	OLED_Refresh
 481              	.LVL52:
 104:BBBOOM/Src/oled.c **** }
 482              		.loc 1 104 1 is_stmt 0 view .LVU89
 483 002a 08BD     		pop	{r3, pc}
 484              	.L42:
 485              		.align	2
 486              	.L41:
 487 002c 00000000 		.word	OLED_GRAM
 488              		.cfi_endproc
 489              	.LFE72:
 491              		.section	.text.OLED_DrawPoint,"ax",%progbits
 492              		.align	1
 493              		.global	OLED_DrawPoint
ARM GAS  C:\Users\Lenovo\AppData\Local\Temp\cc6BOKEM.s 			page 12


 494              		.syntax unified
 495              		.thumb
 496              		.thumb_func
 498              	OLED_DrawPoint:
 499              	.LVL53:
 500              	.LFB73:
 105:BBBOOM/Src/oled.c **** 
 106:BBBOOM/Src/oled.c **** //画点 
 107:BBBOOM/Src/oled.c **** //x:0~127
 108:BBBOOM/Src/oled.c **** //y:0~63
 109:BBBOOM/Src/oled.c **** //t:1 填充 0,清空	
 110:BBBOOM/Src/oled.c **** void OLED_DrawPoint(u8 x,u8 y,u8 t)
 111:BBBOOM/Src/oled.c **** {
 501              		.loc 1 111 1 is_stmt 1 view -0
 502              		.cfi_startproc
 503              		@ args = 0, pretend = 0, frame = 0
 504              		@ frame_needed = 0, uses_anonymous_args = 0
 505              		@ link register save eliminated.
 112:BBBOOM/Src/oled.c **** 	u8 i,m,n;
 506              		.loc 1 112 2 view .LVU91
 113:BBBOOM/Src/oled.c **** 	i=y/8;
 507              		.loc 1 113 2 view .LVU92
 508              		.loc 1 113 3 is_stmt 0 view .LVU93
 509 0000 4FEAD10C 		lsr	ip, r1, #3
 510              	.LVL54:
 114:BBBOOM/Src/oled.c **** 	m=y%8;
 511              		.loc 1 114 2 is_stmt 1 view .LVU94
 512              		.loc 1 114 3 is_stmt 0 view .LVU95
 513 0004 01F00701 		and	r1, r1, #7
 514              	.LVL55:
 115:BBBOOM/Src/oled.c **** 	n=1<<m;
 515              		.loc 1 115 2 is_stmt 1 view .LVU96
 516              		.loc 1 115 5 is_stmt 0 view .LVU97
 517 0008 0123     		movs	r3, #1
 518 000a 03FA01F1 		lsl	r1, r3, r1
 519              	.LVL56:
 520              		.loc 1 115 3 view .LVU98
 521 000e C9B2     		uxtb	r1, r1
 522              	.LVL57:
 116:BBBOOM/Src/oled.c **** 	if(t){OLED_GRAM[x][i]|=n;}
 523              		.loc 1 116 2 is_stmt 1 view .LVU99
 524              		.loc 1 116 4 is_stmt 0 view .LVU100
 525 0010 42B1     		cbz	r2, .L44
 526              		.loc 1 116 8 is_stmt 1 discriminator 1 view .LVU101
 527              		.loc 1 116 20 is_stmt 0 discriminator 1 view .LVU102
 528 0012 0C4B     		ldr	r3, .L46
 529 0014 03EBC003 		add	r3, r3, r0, lsl #3
 530 0018 13F80C20 		ldrb	r2, [r3, ip]	@ zero_extendqisi2
 531              	.LVL58:
 532              		.loc 1 116 23 discriminator 1 view .LVU103
 533 001c 0A43     		orrs	r2, r2, r1
 534 001e 03F80C20 		strb	r2, [r3, ip]
 535 0022 7047     		bx	lr
 536              	.LVL59:
 537              	.L44:
 117:BBBOOM/Src/oled.c **** 	else
 118:BBBOOM/Src/oled.c **** 	{
ARM GAS  C:\Users\Lenovo\AppData\Local\Temp\cc6BOKEM.s 			page 13


 119:BBBOOM/Src/oled.c **** 		OLED_GRAM[x][i]=~OLED_GRAM[x][i];
 538              		.loc 1 119 3 is_stmt 1 view .LVU104
 539              		.loc 1 119 32 is_stmt 0 view .LVU105
 540 0024 074A     		ldr	r2, .L46
 541              	.LVL60:
 542              		.loc 1 119 32 view .LVU106
 543 0026 02EBC002 		add	r2, r2, r0, lsl #3
 544 002a 12F80C30 		ldrb	r3, [r2, ip]	@ zero_extendqisi2
 545              		.loc 1 119 18 view .LVU107
 546 002e DB43     		mvns	r3, r3
 547 0030 DBB2     		uxtb	r3, r3
 548 0032 02F80C30 		strb	r3, [r2, ip]
 120:BBBOOM/Src/oled.c **** 		OLED_GRAM[x][i]|=n;
 549              		.loc 1 120 3 is_stmt 1 view .LVU108
 550              		.loc 1 120 18 is_stmt 0 view .LVU109
 551 0036 0B43     		orrs	r3, r3, r1
 552 0038 02F80C30 		strb	r3, [r2, ip]
 121:BBBOOM/Src/oled.c **** 		OLED_GRAM[x][i]=~OLED_GRAM[x][i];
 553              		.loc 1 121 3 is_stmt 1 view .LVU110
 554              		.loc 1 121 18 is_stmt 0 view .LVU111
 555 003c DB43     		mvns	r3, r3
 556 003e 02F80C30 		strb	r3, [r2, ip]
 122:BBBOOM/Src/oled.c **** 	}
 123:BBBOOM/Src/oled.c **** }
 557              		.loc 1 123 1 view .LVU112
 558 0042 7047     		bx	lr
 559              	.L47:
 560              		.align	2
 561              	.L46:
 562 0044 00000000 		.word	OLED_GRAM
 563              		.cfi_endproc
 564              	.LFE73:
 566              		.section	.text.OLED_DrawLine,"ax",%progbits
 567              		.align	1
 568              		.global	OLED_DrawLine
 569              		.syntax unified
 570              		.thumb
 571              		.thumb_func
 573              	OLED_DrawLine:
 574              	.LVL61:
 575              	.LFB74:
 124:BBBOOM/Src/oled.c **** 
 125:BBBOOM/Src/oled.c **** //画线
 126:BBBOOM/Src/oled.c **** //x1,y1:起点坐标
 127:BBBOOM/Src/oled.c **** //x2,y2:结束坐标
 128:BBBOOM/Src/oled.c **** void OLED_DrawLine(u8 x1,u8 y1,u8 x2,u8 y2,u8 mode)
 129:BBBOOM/Src/oled.c **** {
 576              		.loc 1 129 1 is_stmt 1 view -0
 577              		.cfi_startproc
 578              		@ args = 4, pretend = 0, frame = 16
 579              		@ frame_needed = 0, uses_anonymous_args = 0
 580              		.loc 1 129 1 is_stmt 0 view .LVU114
 581 0000 2DE9F04F 		push	{r4, r5, r6, r7, r8, r9, r10, fp, lr}
 582              	.LCFI11:
 583              		.cfi_def_cfa_offset 36
 584              		.cfi_offset 4, -36
 585              		.cfi_offset 5, -32
ARM GAS  C:\Users\Lenovo\AppData\Local\Temp\cc6BOKEM.s 			page 14


 586              		.cfi_offset 6, -28
 587              		.cfi_offset 7, -24
 588              		.cfi_offset 8, -20
 589              		.cfi_offset 9, -16
 590              		.cfi_offset 10, -12
 591              		.cfi_offset 11, -8
 592              		.cfi_offset 14, -4
 593 0004 85B0     		sub	sp, sp, #20
 594              	.LCFI12:
 595              		.cfi_def_cfa_offset 56
 596 0006 9DF83840 		ldrb	r4, [sp, #56]	@ zero_extendqisi2
 597 000a 0194     		str	r4, [sp, #4]
 130:BBBOOM/Src/oled.c **** 	u16 t; 
 598              		.loc 1 130 2 is_stmt 1 view .LVU115
 131:BBBOOM/Src/oled.c **** 	int xerr=0,yerr=0,delta_x,delta_y,distance;
 599              		.loc 1 131 2 view .LVU116
 600              	.LVL62:
 132:BBBOOM/Src/oled.c **** 	int incx,incy,uRow,uCol;
 601              		.loc 1 132 2 view .LVU117
 133:BBBOOM/Src/oled.c **** 	delta_x=x2-x1; //计算坐标增量 
 602              		.loc 1 133 2 view .LVU118
 603              		.loc 1 133 12 is_stmt 0 view .LVU119
 604 000c 8046     		mov	r8, r0
 605              		.loc 1 133 9 view .LVU120
 606 000e A2EB000B 		sub	fp, r2, r0
 607              	.LVL63:
 134:BBBOOM/Src/oled.c **** 	delta_y=y2-y1;
 608              		.loc 1 134 2 is_stmt 1 view .LVU121
 609              		.loc 1 134 12 is_stmt 0 view .LVU122
 610 0012 8946     		mov	r9, r1
 611              		.loc 1 134 9 view .LVU123
 612 0014 A3EB010A 		sub	r10, r3, r1
 613              	.LVL64:
 135:BBBOOM/Src/oled.c **** 	uRow=x1;//画线起点坐标
 614              		.loc 1 135 2 is_stmt 1 view .LVU124
 136:BBBOOM/Src/oled.c **** 	uCol=y1;
 615              		.loc 1 136 2 view .LVU125
 137:BBBOOM/Src/oled.c **** 	if(delta_x>0)incx=1; //设置单步方向 
 616              		.loc 1 137 2 view .LVU126
 617              		.loc 1 137 4 is_stmt 0 view .LVU127
 618 0018 BBF1000F 		cmp	fp, #0
 619 001c 0DDD     		ble	.L62
 620              		.loc 1 137 19 view .LVU128
 621 001e 0123     		movs	r3, #1
 622              	.LVL65:
 623              		.loc 1 137 19 view .LVU129
 624 0020 0293     		str	r3, [sp, #8]
 625              	.L49:
 626              	.LVL66:
 138:BBBOOM/Src/oled.c **** 	else if (delta_x==0)incx=0;//垂直线 
 139:BBBOOM/Src/oled.c **** 	else {incx=-1;delta_x=-delta_x;}
 140:BBBOOM/Src/oled.c **** 	if(delta_y>0)incy=1;
 627              		.loc 1 140 2 is_stmt 1 view .LVU130
 628              		.loc 1 140 4 is_stmt 0 view .LVU131
 629 0022 BAF1000F 		cmp	r10, #0
 630 0026 14DD     		ble	.L63
 631              		.loc 1 140 19 view .LVU132
ARM GAS  C:\Users\Lenovo\AppData\Local\Temp\cc6BOKEM.s 			page 15


 632 0028 0123     		movs	r3, #1
 633 002a 0393     		str	r3, [sp, #12]
 634              	.L50:
 635              	.LVL67:
 141:BBBOOM/Src/oled.c **** 	else if (delta_y==0)incy=0;//水平线 
 142:BBBOOM/Src/oled.c **** 	else {incy=-1;delta_y=-delta_x;}
 143:BBBOOM/Src/oled.c **** 	if(delta_x>delta_y)distance=delta_x; //选取基本增量坐标轴 
 636              		.loc 1 143 2 is_stmt 1 view .LVU133
 637              		.loc 1 143 4 is_stmt 0 view .LVU134
 638 002c D345     		cmp	fp, r10
 639 002e 1CDD     		ble	.L60
 640              		.loc 1 143 29 view .LVU135
 641 0030 5E46     		mov	r6, fp
 642              	.L51:
 643              	.LVL68:
 144:BBBOOM/Src/oled.c **** 	else distance=delta_y;
 145:BBBOOM/Src/oled.c **** 	for(t=0;t<distance+1;t++)
 644              		.loc 1 145 2 is_stmt 1 view .LVU136
 131:BBBOOM/Src/oled.c **** 	int incx,incy,uRow,uCol;
 645              		.loc 1 131 13 is_stmt 0 view .LVU137
 646 0032 0025     		movs	r5, #0
 131:BBBOOM/Src/oled.c **** 	int incx,incy,uRow,uCol;
 647              		.loc 1 131 6 view .LVU138
 648 0034 2F46     		mov	r7, r5
 649              		.loc 1 145 7 view .LVU139
 650 0036 2C46     		mov	r4, r5
 651              		.loc 1 145 2 view .LVU140
 652 0038 1BE0     		b	.L52
 653              	.LVL69:
 654              	.L62:
 138:BBBOOM/Src/oled.c **** 	else {incx=-1;delta_x=-delta_x;}
 655              		.loc 1 138 7 is_stmt 1 view .LVU141
 138:BBBOOM/Src/oled.c **** 	else {incx=-1;delta_x=-delta_x;}
 656              		.loc 1 138 10 is_stmt 0 view .LVU142
 657 003a BBF1000F 		cmp	fp, #0
 658 003e 05D0     		beq	.L57
 139:BBBOOM/Src/oled.c **** 	if(delta_y>0)incy=1;
 659              		.loc 1 139 8 is_stmt 1 view .LVU143
 660              	.LVL70:
 139:BBBOOM/Src/oled.c **** 	if(delta_y>0)incy=1;
 661              		.loc 1 139 16 view .LVU144
 139:BBBOOM/Src/oled.c **** 	if(delta_y>0)incy=1;
 662              		.loc 1 139 23 is_stmt 0 view .LVU145
 663 0040 A0EB020B 		sub	fp, r0, r2
 664              	.LVL71:
 139:BBBOOM/Src/oled.c **** 	if(delta_y>0)incy=1;
 665              		.loc 1 139 12 view .LVU146
 666 0044 4FF0FF33 		mov	r3, #-1
 667              	.LVL72:
 139:BBBOOM/Src/oled.c **** 	if(delta_y>0)incy=1;
 668              		.loc 1 139 12 view .LVU147
 669 0048 0293     		str	r3, [sp, #8]
 670 004a EAE7     		b	.L49
 671              	.LVL73:
 672              	.L57:
 138:BBBOOM/Src/oled.c **** 	else {incx=-1;delta_x=-delta_x;}
 673              		.loc 1 138 26 view .LVU148
ARM GAS  C:\Users\Lenovo\AppData\Local\Temp\cc6BOKEM.s 			page 16


 674 004c CDF808B0 		str	fp, [sp, #8]
 675 0050 E7E7     		b	.L49
 676              	.LVL74:
 677              	.L63:
 141:BBBOOM/Src/oled.c **** 	else {incy=-1;delta_y=-delta_x;}
 678              		.loc 1 141 7 is_stmt 1 view .LVU149
 141:BBBOOM/Src/oled.c **** 	else {incy=-1;delta_y=-delta_x;}
 679              		.loc 1 141 10 is_stmt 0 view .LVU150
 680 0052 BAF1000F 		cmp	r10, #0
 681 0056 05D0     		beq	.L59
 142:BBBOOM/Src/oled.c **** 	if(delta_x>delta_y)distance=delta_x; //选取基本增量坐标轴 
 682              		.loc 1 142 8 is_stmt 1 view .LVU151
 683              	.LVL75:
 142:BBBOOM/Src/oled.c **** 	if(delta_x>delta_y)distance=delta_x; //选取基本增量坐标轴 
 684              		.loc 1 142 16 view .LVU152
 142:BBBOOM/Src/oled.c **** 	if(delta_x>delta_y)distance=delta_x; //选取基本增量坐标轴 
 685              		.loc 1 142 23 is_stmt 0 view .LVU153
 686 0058 CBF1000A 		rsb	r10, fp, #0
 687              	.LVL76:
 142:BBBOOM/Src/oled.c **** 	if(delta_x>delta_y)distance=delta_x; //选取基本增量坐标轴 
 688              		.loc 1 142 12 view .LVU154
 689 005c 4FF0FF33 		mov	r3, #-1
 690 0060 0393     		str	r3, [sp, #12]
 691 0062 E3E7     		b	.L50
 692              	.LVL77:
 693              	.L59:
 141:BBBOOM/Src/oled.c **** 	else {incy=-1;delta_y=-delta_x;}
 694              		.loc 1 141 26 view .LVU155
 695 0064 CDF80CA0 		str	r10, [sp, #12]
 696 0068 E0E7     		b	.L50
 697              	.LVL78:
 698              	.L60:
 144:BBBOOM/Src/oled.c **** 	for(t=0;t<distance+1;t++)
 699              		.loc 1 144 15 view .LVU156
 700 006a 5646     		mov	r6, r10
 701 006c E1E7     		b	.L51
 702              	.LVL79:
 703              	.L54:
 704              		.loc 1 145 24 is_stmt 1 discriminator 2 view .LVU157
 705 006e 0134     		adds	r4, r4, #1
 706              	.LVL80:
 707              		.loc 1 145 24 is_stmt 0 discriminator 2 view .LVU158
 708 0070 A4B2     		uxth	r4, r4
 709              	.LVL81:
 710              	.L52:
 711              		.loc 1 145 11 is_stmt 1 discriminator 1 view .LVU159
 712 0072 B442     		cmp	r4, r6
 713 0074 13DC     		bgt	.L64
 146:BBBOOM/Src/oled.c **** 	{
 147:BBBOOM/Src/oled.c **** 		OLED_DrawPoint(uRow,uCol,mode);//画点
 714              		.loc 1 147 3 view .LVU160
 715 0076 019A     		ldr	r2, [sp, #4]
 716 0078 5FFA89F1 		uxtb	r1, r9
 717 007c 5FFA88F0 		uxtb	r0, r8
 718 0080 FFF7FEFF 		bl	OLED_DrawPoint
 719              	.LVL82:
 148:BBBOOM/Src/oled.c **** 		xerr+=delta_x;
ARM GAS  C:\Users\Lenovo\AppData\Local\Temp\cc6BOKEM.s 			page 17


 720              		.loc 1 148 3 view .LVU161
 721              		.loc 1 148 7 is_stmt 0 view .LVU162
 722 0084 5F44     		add	r7, r7, fp
 723              	.LVL83:
 149:BBBOOM/Src/oled.c **** 		yerr+=delta_y;
 724              		.loc 1 149 3 is_stmt 1 view .LVU163
 725              		.loc 1 149 7 is_stmt 0 view .LVU164
 726 0086 5544     		add	r5, r5, r10
 727              	.LVL84:
 150:BBBOOM/Src/oled.c **** 		if(xerr>distance)
 728              		.loc 1 150 3 is_stmt 1 view .LVU165
 729              		.loc 1 150 5 is_stmt 0 view .LVU166
 730 0088 BE42     		cmp	r6, r7
 731 008a 02DA     		bge	.L53
 151:BBBOOM/Src/oled.c **** 		{
 152:BBBOOM/Src/oled.c **** 			xerr-=distance;
 732              		.loc 1 152 4 is_stmt 1 view .LVU167
 733              		.loc 1 152 8 is_stmt 0 view .LVU168
 734 008c BF1B     		subs	r7, r7, r6
 735              	.LVL85:
 153:BBBOOM/Src/oled.c **** 			uRow+=incx;
 736              		.loc 1 153 4 is_stmt 1 view .LVU169
 737              		.loc 1 153 8 is_stmt 0 view .LVU170
 738 008e 029B     		ldr	r3, [sp, #8]
 739 0090 9844     		add	r8, r8, r3
 740              	.LVL86:
 741              	.L53:
 154:BBBOOM/Src/oled.c **** 		}
 155:BBBOOM/Src/oled.c **** 		if(yerr>distance)
 742              		.loc 1 155 3 is_stmt 1 view .LVU171
 743              		.loc 1 155 5 is_stmt 0 view .LVU172
 744 0092 AE42     		cmp	r6, r5
 745 0094 EBDA     		bge	.L54
 156:BBBOOM/Src/oled.c **** 		{
 157:BBBOOM/Src/oled.c **** 			yerr-=distance;
 746              		.loc 1 157 4 is_stmt 1 view .LVU173
 747              		.loc 1 157 8 is_stmt 0 view .LVU174
 748 0096 AD1B     		subs	r5, r5, r6
 749              	.LVL87:
 158:BBBOOM/Src/oled.c **** 			uCol+=incy;
 750              		.loc 1 158 4 is_stmt 1 view .LVU175
 751              		.loc 1 158 8 is_stmt 0 view .LVU176
 752 0098 039B     		ldr	r3, [sp, #12]
 753 009a 9944     		add	r9, r9, r3
 754              	.LVL88:
 755              		.loc 1 158 8 view .LVU177
 756 009c E7E7     		b	.L54
 757              	.L64:
 159:BBBOOM/Src/oled.c **** 		}
 160:BBBOOM/Src/oled.c **** 	}
 161:BBBOOM/Src/oled.c **** }
 758              		.loc 1 161 1 view .LVU178
 759 009e 05B0     		add	sp, sp, #20
 760              	.LCFI13:
 761              		.cfi_def_cfa_offset 36
 762              		@ sp needed
 763 00a0 BDE8F08F 		pop	{r4, r5, r6, r7, r8, r9, r10, fp, pc}
ARM GAS  C:\Users\Lenovo\AppData\Local\Temp\cc6BOKEM.s 			page 18


 764              		.loc 1 161 1 view .LVU179
 765              		.cfi_endproc
 766              	.LFE74:
 768              		.section	.text.OLED_DrawCircle,"ax",%progbits
 769              		.align	1
 770              		.global	OLED_DrawCircle
 771              		.syntax unified
 772              		.thumb
 773              		.thumb_func
 775              	OLED_DrawCircle:
 776              	.LVL89:
 777              	.LFB75:
 162:BBBOOM/Src/oled.c **** //x,y:圆心坐标
 163:BBBOOM/Src/oled.c **** //r:圆的半径
 164:BBBOOM/Src/oled.c **** void OLED_DrawCircle(u8 x,u8 y,u8 r)
 165:BBBOOM/Src/oled.c **** {
 778              		.loc 1 165 1 is_stmt 1 view -0
 779              		.cfi_startproc
 780              		@ args = 0, pretend = 0, frame = 16
 781              		@ frame_needed = 0, uses_anonymous_args = 0
 782              		.loc 1 165 1 is_stmt 0 view .LVU181
 783 0000 2DE9F04F 		push	{r4, r5, r6, r7, r8, r9, r10, fp, lr}
 784              	.LCFI14:
 785              		.cfi_def_cfa_offset 36
 786              		.cfi_offset 4, -36
 787              		.cfi_offset 5, -32
 788              		.cfi_offset 6, -28
 789              		.cfi_offset 7, -24
 790              		.cfi_offset 8, -20
 791              		.cfi_offset 9, -16
 792              		.cfi_offset 10, -12
 793              		.cfi_offset 11, -8
 794              		.cfi_offset 14, -4
 795 0004 85B0     		sub	sp, sp, #20
 796              	.LCFI15:
 797              		.cfi_def_cfa_offset 56
 798 0006 8246     		mov	r10, r0
 799 0008 8B46     		mov	fp, r1
 800 000a 0392     		str	r2, [sp, #12]
 166:BBBOOM/Src/oled.c **** 	int a, b,num;
 801              		.loc 1 166 2 is_stmt 1 view .LVU182
 167:BBBOOM/Src/oled.c ****     a = 0;
 802              		.loc 1 167 5 view .LVU183
 803              	.LVL90:
 168:BBBOOM/Src/oled.c ****     b = r;
 804              		.loc 1 168 5 view .LVU184
 169:BBBOOM/Src/oled.c ****     while(2 * b * b >= r * r)      
 805              		.loc 1 169 5 view .LVU185
 168:BBBOOM/Src/oled.c ****     b = r;
 806              		.loc 1 168 7 is_stmt 0 view .LVU186
 807 000c 0092     		str	r2, [sp]
 167:BBBOOM/Src/oled.c ****     a = 0;
 808              		.loc 1 167 7 view .LVU187
 809 000e 0023     		movs	r3, #0
 810 0010 0193     		str	r3, [sp, #4]
 811              		.loc 1 169 10 view .LVU188
 812 0012 02E0     		b	.L66
ARM GAS  C:\Users\Lenovo\AppData\Local\Temp\cc6BOKEM.s 			page 19


 813              	.LVL91:
 814              	.L72:
 170:BBBOOM/Src/oled.c ****     {
 171:BBBOOM/Src/oled.c ****         OLED_DrawPoint(x + a, y - b,1);
 172:BBBOOM/Src/oled.c ****         OLED_DrawPoint(x - a, y - b,1);
 173:BBBOOM/Src/oled.c ****         OLED_DrawPoint(x - a, y + b,1);
 174:BBBOOM/Src/oled.c ****         OLED_DrawPoint(x + a, y + b,1);
 175:BBBOOM/Src/oled.c ****  
 176:BBBOOM/Src/oled.c ****         OLED_DrawPoint(x + b, y + a,1);
 177:BBBOOM/Src/oled.c ****         OLED_DrawPoint(x + b, y - a,1);
 178:BBBOOM/Src/oled.c ****         OLED_DrawPoint(x - b, y - a,1);
 179:BBBOOM/Src/oled.c ****         OLED_DrawPoint(x - b, y + a,1);
 180:BBBOOM/Src/oled.c ****         
 181:BBBOOM/Src/oled.c ****         a++;
 182:BBBOOM/Src/oled.c ****         num = (a * a + b * b) - r*r;//计算画的点离圆心的距离
 183:BBBOOM/Src/oled.c ****         if(num > 0)
 184:BBBOOM/Src/oled.c ****         {
 185:BBBOOM/Src/oled.c ****             b--;
 815              		.loc 1 185 13 is_stmt 1 view .LVU189
 816              		.loc 1 185 14 is_stmt 0 view .LVU190
 817 0014 009B     		ldr	r3, [sp]
 818              	.LVL92:
 819              		.loc 1 185 14 view .LVU191
 820 0016 013B     		subs	r3, r3, #1
 821 0018 0093     		str	r3, [sp]
 822              	.LVL93:
 186:BBBOOM/Src/oled.c ****             a--;
 823              		.loc 1 186 13 is_stmt 1 view .LVU192
 824              	.L66:
 169:BBBOOM/Src/oled.c ****     while(2 * b * b >= r * r)      
 825              		.loc 1 169 21 view .LVU193
 169:BBBOOM/Src/oled.c ****     while(2 * b * b >= r * r)      
 826              		.loc 1 169 17 is_stmt 0 view .LVU194
 827 001a 009B     		ldr	r3, [sp]
 828 001c 03FB03F6 		mul	r6, r3, r3
 169:BBBOOM/Src/oled.c ****     while(2 * b * b >= r * r)      
 829              		.loc 1 169 26 view .LVU195
 830 0020 039B     		ldr	r3, [sp, #12]
 831 0022 03FB03F3 		mul	r3, r3, r3
 832 0026 0293     		str	r3, [sp, #8]
 169:BBBOOM/Src/oled.c ****     while(2 * b * b >= r * r)      
 833              		.loc 1 169 21 view .LVU196
 834 0028 B3EB460F 		cmp	r3, r6, lsl #1
 835 002c 51DC     		bgt	.L71
 171:BBBOOM/Src/oled.c ****         OLED_DrawPoint(x - a, y - b,1);
 836              		.loc 1 171 9 is_stmt 1 view .LVU197
 837 002e 9DF80450 		ldrb	r5, [sp, #4]	@ zero_extendqisi2
 838 0032 05EB0A07 		add	r7, r5, r10
 839 0036 FFB2     		uxtb	r7, r7
 840 0038 9DF80040 		ldrb	r4, [sp]	@ zero_extendqisi2
 841 003c ABEB0408 		sub	r8, fp, r4
 842 0040 5FFA88F8 		uxtb	r8, r8
 843 0044 0122     		movs	r2, #1
 844 0046 4146     		mov	r1, r8
 845 0048 3846     		mov	r0, r7
 846 004a FFF7FEFF 		bl	OLED_DrawPoint
 847              	.LVL94:
ARM GAS  C:\Users\Lenovo\AppData\Local\Temp\cc6BOKEM.s 			page 20


 172:BBBOOM/Src/oled.c ****         OLED_DrawPoint(x - a, y + b,1);
 848              		.loc 1 172 9 view .LVU198
 849 004e AAEB0509 		sub	r9, r10, r5
 850 0052 5FFA89F9 		uxtb	r9, r9
 851 0056 0122     		movs	r2, #1
 852 0058 4146     		mov	r1, r8
 853 005a 4846     		mov	r0, r9
 854 005c FFF7FEFF 		bl	OLED_DrawPoint
 855              	.LVL95:
 173:BBBOOM/Src/oled.c ****         OLED_DrawPoint(x + a, y + b,1);
 856              		.loc 1 173 9 view .LVU199
 857 0060 04EB0B08 		add	r8, r4, fp
 858 0064 5FFA88F8 		uxtb	r8, r8
 859 0068 0122     		movs	r2, #1
 860 006a 4146     		mov	r1, r8
 861 006c 4846     		mov	r0, r9
 862 006e FFF7FEFF 		bl	OLED_DrawPoint
 863              	.LVL96:
 174:BBBOOM/Src/oled.c ****  
 864              		.loc 1 174 9 view .LVU200
 865 0072 0122     		movs	r2, #1
 866 0074 4146     		mov	r1, r8
 867 0076 3846     		mov	r0, r7
 868 0078 FFF7FEFF 		bl	OLED_DrawPoint
 869              	.LVL97:
 176:BBBOOM/Src/oled.c ****         OLED_DrawPoint(x + b, y - a,1);
 870              		.loc 1 176 9 view .LVU201
 871 007c 04EB0A08 		add	r8, r4, r10
 872 0080 5FFA88F8 		uxtb	r8, r8
 873 0084 05EB0B07 		add	r7, r5, fp
 874 0088 FFB2     		uxtb	r7, r7
 875 008a 0122     		movs	r2, #1
 876 008c 3946     		mov	r1, r7
 877 008e 4046     		mov	r0, r8
 878 0090 FFF7FEFF 		bl	OLED_DrawPoint
 879              	.LVL98:
 177:BBBOOM/Src/oled.c ****         OLED_DrawPoint(x - b, y - a,1);
 880              		.loc 1 177 9 view .LVU202
 881 0094 ABEB0505 		sub	r5, fp, r5
 882 0098 EDB2     		uxtb	r5, r5
 883 009a 0122     		movs	r2, #1
 884 009c 2946     		mov	r1, r5
 885 009e 4046     		mov	r0, r8
 886 00a0 FFF7FEFF 		bl	OLED_DrawPoint
 887              	.LVL99:
 178:BBBOOM/Src/oled.c ****         OLED_DrawPoint(x - b, y + a,1);
 888              		.loc 1 178 9 view .LVU203
 889 00a4 AAEB0404 		sub	r4, r10, r4
 890 00a8 E4B2     		uxtb	r4, r4
 891 00aa 0122     		movs	r2, #1
 892 00ac 2946     		mov	r1, r5
 893 00ae 2046     		mov	r0, r4
 894 00b0 FFF7FEFF 		bl	OLED_DrawPoint
 895              	.LVL100:
 179:BBBOOM/Src/oled.c ****         
 896              		.loc 1 179 9 view .LVU204
 897 00b4 0122     		movs	r2, #1
ARM GAS  C:\Users\Lenovo\AppData\Local\Temp\cc6BOKEM.s 			page 21


 898 00b6 3946     		mov	r1, r7
 899 00b8 2046     		mov	r0, r4
 900 00ba FFF7FEFF 		bl	OLED_DrawPoint
 901              	.LVL101:
 181:BBBOOM/Src/oled.c ****         num = (a * a + b * b) - r*r;//计算画的点离圆心的距离
 902              		.loc 1 181 9 view .LVU205
 181:BBBOOM/Src/oled.c ****         num = (a * a + b * b) - r*r;//计算画的点离圆心的距离
 903              		.loc 1 181 10 is_stmt 0 view .LVU206
 904 00be 019B     		ldr	r3, [sp, #4]
 905 00c0 0133     		adds	r3, r3, #1
 906              	.LVL102:
 182:BBBOOM/Src/oled.c ****         if(num > 0)
 907              		.loc 1 182 9 is_stmt 1 view .LVU207
 182:BBBOOM/Src/oled.c ****         if(num > 0)
 908              		.loc 1 182 22 is_stmt 0 view .LVU208
 909 00c2 03FB0366 		mla	r6, r3, r3, r6
 182:BBBOOM/Src/oled.c ****         if(num > 0)
 910              		.loc 1 182 13 view .LVU209
 911 00c6 029A     		ldr	r2, [sp, #8]
 912 00c8 B61A     		subs	r6, r6, r2
 913              	.LVL103:
 183:BBBOOM/Src/oled.c ****         {
 914              		.loc 1 183 9 is_stmt 1 view .LVU210
 183:BBBOOM/Src/oled.c ****         {
 915              		.loc 1 183 11 is_stmt 0 view .LVU211
 916 00ca 002E     		cmp	r6, #0
 917 00cc A2DC     		bgt	.L72
 181:BBBOOM/Src/oled.c ****         num = (a * a + b * b) - r*r;//计算画的点离圆心的距离
 918              		.loc 1 181 10 view .LVU212
 919 00ce 0193     		str	r3, [sp, #4]
 920 00d0 A3E7     		b	.L66
 921              	.LVL104:
 922              	.L71:
 187:BBBOOM/Src/oled.c ****         }
 188:BBBOOM/Src/oled.c ****     }
 189:BBBOOM/Src/oled.c **** }
 923              		.loc 1 189 1 view .LVU213
 924 00d2 05B0     		add	sp, sp, #20
 925              	.LCFI16:
 926              		.cfi_def_cfa_offset 36
 927              	.LVL105:
 928              		.loc 1 189 1 view .LVU214
 929              		@ sp needed
 930 00d4 BDE8F08F 		pop	{r4, r5, r6, r7, r8, r9, r10, fp, pc}
 931              		.loc 1 189 1 view .LVU215
 932              		.cfi_endproc
 933              	.LFE75:
 935              		.section	.text.OLED_ShowChar,"ax",%progbits
 936              		.align	1
 937              		.global	OLED_ShowChar
 938              		.syntax unified
 939              		.thumb
 940              		.thumb_func
 942              	OLED_ShowChar:
 943              	.LVL106:
 944              	.LFB76:
 190:BBBOOM/Src/oled.c **** 
ARM GAS  C:\Users\Lenovo\AppData\Local\Temp\cc6BOKEM.s 			page 22


 191:BBBOOM/Src/oled.c **** 
 192:BBBOOM/Src/oled.c **** 
 193:BBBOOM/Src/oled.c **** //在指定位置显示一个字符,包括部分字符
 194:BBBOOM/Src/oled.c **** //x:0~127
 195:BBBOOM/Src/oled.c **** //y:0~63
 196:BBBOOM/Src/oled.c **** //size1:选择字体 6x8/6x12/8x16/12x24
 197:BBBOOM/Src/oled.c **** //mode:0,反色显示;1,正常显示
 198:BBBOOM/Src/oled.c **** void OLED_ShowChar(u8 x,u8 y,u8 chr,u8 size1,u8 mode)
 199:BBBOOM/Src/oled.c **** {
 945              		.loc 1 199 1 is_stmt 1 view -0
 946              		.cfi_startproc
 947              		@ args = 4, pretend = 0, frame = 16
 948              		@ frame_needed = 0, uses_anonymous_args = 0
 949              		.loc 1 199 1 is_stmt 0 view .LVU217
 950 0000 2DE9F04F 		push	{r4, r5, r6, r7, r8, r9, r10, fp, lr}
 951              	.LCFI17:
 952              		.cfi_def_cfa_offset 36
 953              		.cfi_offset 4, -36
 954              		.cfi_offset 5, -32
 955              		.cfi_offset 6, -28
 956              		.cfi_offset 7, -24
 957              		.cfi_offset 8, -20
 958              		.cfi_offset 9, -16
 959              		.cfi_offset 10, -12
 960              		.cfi_offset 11, -8
 961              		.cfi_offset 14, -4
 962 0004 85B0     		sub	sp, sp, #20
 963              	.LCFI18:
 964              		.cfi_def_cfa_offset 56
 965 0006 0390     		str	r0, [sp, #12]
 966 0008 0191     		str	r1, [sp, #4]
 967 000a 9DF83870 		ldrb	r7, [sp, #56]	@ zero_extendqisi2
 200:BBBOOM/Src/oled.c **** 	u8 i,m,temp,size2,chr1;
 968              		.loc 1 200 2 is_stmt 1 view .LVU218
 201:BBBOOM/Src/oled.c **** 	u8 x0=x,y0=y;
 969              		.loc 1 201 2 view .LVU219
 970              	.LVL107:
 202:BBBOOM/Src/oled.c **** 	if(size1==8)size2=6;
 971              		.loc 1 202 2 view .LVU220
 972              		.loc 1 202 4 is_stmt 0 view .LVU221
 973 000e 082B     		cmp	r3, #8
 974 0010 16D0     		beq	.L89
 203:BBBOOM/Src/oled.c **** 	else size2=(size1/8+((size1%8)?1:0))*(size1/2);  //得到字体一个字符对应点阵集所占的字节数
 975              		.loc 1 203 7 is_stmt 1 view .LVU222
 976              		.loc 1 203 34 is_stmt 0 view .LVU223
 977 0012 13F00701 		ands	r1, r3, #7
 978              	.LVL108:
 979              		.loc 1 203 34 view .LVU224
 980 0016 18BF     		it	ne
 981 0018 0121     		movne	r1, #1
 982              		.loc 1 203 21 view .LVU225
 983 001a 01EBD308 		add	r8, r1, r3, lsr #3
 984              		.loc 1 203 12 view .LVU226
 985 001e 5908     		lsrs	r1, r3, #1
 986 0020 01FB08F8 		mul	r8, r1, r8
 987 0024 5FFA88F8 		uxtb	r8, r8
 988              	.LVL109:
ARM GAS  C:\Users\Lenovo\AppData\Local\Temp\cc6BOKEM.s 			page 23


 989              	.L74:
 204:BBBOOM/Src/oled.c **** 	chr1=chr-' ';  //计算偏移后的值
 990              		.loc 1 204 2 is_stmt 1 view .LVU227
 991              		.loc 1 204 6 is_stmt 0 view .LVU228
 992 0028 203A     		subs	r2, r2, #32
 993              	.LVL110:
 994              		.loc 1 204 6 view .LVU229
 995 002a 5FFA82F9 		uxtb	r9, r2
 996              	.LVL111:
 205:BBBOOM/Src/oled.c **** 	for(i=0;i<size2;i++)
 997              		.loc 1 205 2 is_stmt 1 view .LVU230
 998              		.loc 1 205 2 is_stmt 0 view .LVU231
 999 002e DDF80CB0 		ldr	fp, [sp, #12]
 1000              		.loc 1 205 7 view .LVU232
 1001 0032 4FF0000A 		mov	r10, #0
 1002 0036 CDF80880 		str	r8, [sp, #8]
 1003 003a C846     		mov	r8, r9
 1004              	.LVL112:
 1005              		.loc 1 205 7 view .LVU233
 1006 003c 9946     		mov	r9, r3
 1007              	.LVL113:
 1008              		.loc 1 205 2 view .LVU234
 1009 003e 4AE0     		b	.L75
 1010              	.LVL114:
 1011              	.L89:
 202:BBBOOM/Src/oled.c **** 	else size2=(size1/8+((size1%8)?1:0))*(size1/2);  //得到字体一个字符对应点阵集所占的字节数
 1012              		.loc 1 202 19 view .LVU235
 1013 0040 4FF00608 		mov	r8, #6
 1014 0044 F0E7     		b	.L74
 1015              	.LVL115:
 1016              	.L81:
 206:BBBOOM/Src/oled.c **** 	{
 207:BBBOOM/Src/oled.c **** 		if(size1==8)
 208:BBBOOM/Src/oled.c **** 			  {temp=asc2_0806[chr1][i];} //调用0806字体
 1017              		.loc 1 208 7 is_stmt 1 view .LVU236
 1018              		.loc 1 208 11 is_stmt 0 view .LVU237
 1019 0046 08EB4804 		add	r4, r8, r8, lsl #1
 1020 004a 3E49     		ldr	r1, .L94
 1021 004c 01EB4401 		add	r1, r1, r4, lsl #1
 1022 0050 11F80A60 		ldrb	r6, [r1, r10]	@ zero_extendqisi2
 1023              	.LVL116:
 1024              	.L82:
 202:BBBOOM/Src/oled.c **** 	else size2=(size1/8+((size1%8)?1:0))*(size1/2);  //得到字体一个字符对应点阵集所占的字节数
 1025              		.loc 1 202 19 discriminator 1 view .LVU238
 1026 0054 019D     		ldr	r5, [sp, #4]
 1027 0056 0024     		movs	r4, #0
 1028 0058 21E0     		b	.L85
 1029              	.LVL117:
 1030              	.L80:
 209:BBBOOM/Src/oled.c **** 		else if(size1==12)
 210:BBBOOM/Src/oled.c ****         {temp=asc2_1206[chr1][i];} //调用1206字体
 1031              		.loc 1 210 10 is_stmt 1 view .LVU239
 1032              		.loc 1 210 14 is_stmt 0 view .LVU240
 1033 005a 08EB4804 		add	r4, r8, r8, lsl #1
 1034 005e 3A49     		ldr	r1, .L94+4
 1035 0060 01EB8401 		add	r1, r1, r4, lsl #2
 1036 0064 11F80A60 		ldrb	r6, [r1, r10]	@ zero_extendqisi2
ARM GAS  C:\Users\Lenovo\AppData\Local\Temp\cc6BOKEM.s 			page 24


 1037              	.LVL118:
 1038              		.loc 1 210 14 view .LVU241
 1039 0068 F4E7     		b	.L82
 1040              	.LVL119:
 1041              	.L79:
 211:BBBOOM/Src/oled.c **** 		else if(size1==16)
 212:BBBOOM/Src/oled.c ****         {temp=asc2_1608[chr1][i];} //调用1608字体
 1042              		.loc 1 212 10 is_stmt 1 view .LVU242
 1043              		.loc 1 212 14 is_stmt 0 view .LVU243
 1044 006a 3849     		ldr	r1, .L94+8
 1045 006c 01EB0811 		add	r1, r1, r8, lsl #4
 1046 0070 11F80A60 		ldrb	r6, [r1, r10]	@ zero_extendqisi2
 1047              	.LVL120:
 1048              		.loc 1 212 14 view .LVU244
 1049 0074 EEE7     		b	.L82
 1050              	.LVL121:
 1051              	.L77:
 213:BBBOOM/Src/oled.c **** 		else if(size1==24)
 214:BBBOOM/Src/oled.c ****         {temp=asc2_2412[chr1][i];} //调用2412字体
 1052              		.loc 1 214 10 is_stmt 1 view .LVU245
 1053              		.loc 1 214 14 is_stmt 0 view .LVU246
 1054 0076 08EBC804 		add	r4, r8, r8, lsl #3
 1055 007a 3549     		ldr	r1, .L94+12
 1056 007c 01EB8401 		add	r1, r1, r4, lsl #2
 1057 0080 11F80A60 		ldrb	r6, [r1, r10]	@ zero_extendqisi2
 1058              	.LVL122:
 1059              		.loc 1 214 14 view .LVU247
 1060 0084 E6E7     		b	.L82
 1061              	.LVL123:
 1062              	.L83:
 215:BBBOOM/Src/oled.c **** 		else return;
 216:BBBOOM/Src/oled.c **** 		for(m=0;m<8;m++)
 217:BBBOOM/Src/oled.c **** 		{
 218:BBBOOM/Src/oled.c **** 			if(temp&0x01)OLED_DrawPoint(x,y,mode);
 219:BBBOOM/Src/oled.c **** 			else OLED_DrawPoint(x,y,!mode);
 1063              		.loc 1 219 9 is_stmt 1 view .LVU248
 1064 0086 B7FA87F2 		clz	r2, r7
 1065 008a 5209     		lsrs	r2, r2, #5
 1066 008c 2946     		mov	r1, r5
 1067 008e 5846     		mov	r0, fp
 1068 0090 FFF7FEFF 		bl	OLED_DrawPoint
 1069              	.LVL124:
 1070              	.L84:
 220:BBBOOM/Src/oled.c **** 			temp>>=1;
 1071              		.loc 1 220 4 discriminator 2 view .LVU249
 1072              		.loc 1 220 8 is_stmt 0 discriminator 2 view .LVU250
 1073 0094 7608     		lsrs	r6, r6, #1
 1074              	.LVL125:
 221:BBBOOM/Src/oled.c **** 			y++;
 1075              		.loc 1 221 4 is_stmt 1 discriminator 2 view .LVU251
 1076              		.loc 1 221 5 is_stmt 0 discriminator 2 view .LVU252
 1077 0096 0135     		adds	r5, r5, #1
 1078              	.LVL126:
 1079              		.loc 1 221 5 discriminator 2 view .LVU253
 1080 0098 EDB2     		uxtb	r5, r5
 1081              	.LVL127:
 216:BBBOOM/Src/oled.c **** 		{
ARM GAS  C:\Users\Lenovo\AppData\Local\Temp\cc6BOKEM.s 			page 25


 1082              		.loc 1 216 16 is_stmt 1 discriminator 2 view .LVU254
 1083 009a 0134     		adds	r4, r4, #1
 1084              	.LVL128:
 216:BBBOOM/Src/oled.c **** 		{
 1085              		.loc 1 216 16 is_stmt 0 discriminator 2 view .LVU255
 1086 009c E4B2     		uxtb	r4, r4
 1087              	.LVL129:
 1088              	.L85:
 216:BBBOOM/Src/oled.c **** 		{
 1089              		.loc 1 216 12 is_stmt 1 discriminator 1 view .LVU256
 1090 009e 072C     		cmp	r4, #7
 1091 00a0 08D8     		bhi	.L92
 218:BBBOOM/Src/oled.c **** 			else OLED_DrawPoint(x,y,!mode);
 1092              		.loc 1 218 4 view .LVU257
 218:BBBOOM/Src/oled.c **** 			else OLED_DrawPoint(x,y,!mode);
 1093              		.loc 1 218 6 is_stmt 0 view .LVU258
 1094 00a2 16F0010F 		tst	r6, #1
 1095 00a6 EED0     		beq	.L83
 218:BBBOOM/Src/oled.c **** 			else OLED_DrawPoint(x,y,!mode);
 1096              		.loc 1 218 17 is_stmt 1 discriminator 1 view .LVU259
 1097 00a8 3A46     		mov	r2, r7
 1098 00aa 2946     		mov	r1, r5
 1099 00ac 5846     		mov	r0, fp
 1100 00ae FFF7FEFF 		bl	OLED_DrawPoint
 1101              	.LVL130:
 1102 00b2 EFE7     		b	.L84
 1103              	.L92:
 222:BBBOOM/Src/oled.c **** 		}
 223:BBBOOM/Src/oled.c **** 		x++;
 1104              		.loc 1 223 3 view .LVU260
 1105              		.loc 1 223 4 is_stmt 0 view .LVU261
 1106 00b4 0BF1010B 		add	fp, fp, #1
 1107              	.LVL131:
 1108              		.loc 1 223 4 view .LVU262
 1109 00b8 5FFA8BFB 		uxtb	fp, fp
 1110              	.LVL132:
 224:BBBOOM/Src/oled.c **** 		if((size1!=8)&&((x-x0)==size1/2))
 1111              		.loc 1 224 3 is_stmt 1 view .LVU263
 1112              		.loc 1 224 5 is_stmt 0 view .LVU264
 1113 00bc B9F1080F 		cmp	r9, #8
 1114 00c0 05D0     		beq	.L87
 1115              		.loc 1 224 21 discriminator 1 view .LVU265
 1116 00c2 039B     		ldr	r3, [sp, #12]
 1117 00c4 ABEB0301 		sub	r1, fp, r3
 1118              		.loc 1 224 16 discriminator 1 view .LVU266
 1119 00c8 B1EB590F 		cmp	r1, r9, lsr #1
 1120 00cc 30D0     		beq	.L93
 1121              	.LVL133:
 1122              	.L87:
 225:BBBOOM/Src/oled.c **** 		{x=x0;y0=y0+8;}
 226:BBBOOM/Src/oled.c **** 		y=y0;
 1123              		.loc 1 226 3 is_stmt 1 discriminator 2 view .LVU267
 205:BBBOOM/Src/oled.c **** 	{
 1124              		.loc 1 205 19 discriminator 2 view .LVU268
 1125 00ce 0AF10102 		add	r2, r10, #1
 1126 00d2 5FFA82FA 		uxtb	r10, r2
 1127              	.LVL134:
ARM GAS  C:\Users\Lenovo\AppData\Local\Temp\cc6BOKEM.s 			page 26


 1128              	.L75:
 205:BBBOOM/Src/oled.c **** 	{
 1129              		.loc 1 205 11 discriminator 1 view .LVU269
 1130 00d6 029B     		ldr	r3, [sp, #8]
 1131 00d8 9A45     		cmp	r10, r3
 1132 00da 30D2     		bcs	.L73
 207:BBBOOM/Src/oled.c **** 			  {temp=asc2_0806[chr1][i];} //调用0806字体
 1133              		.loc 1 207 3 view .LVU270
 1134 00dc A9F10801 		sub	r1, r9, #8
 1135 00e0 1029     		cmp	r1, #16
 1136 00e2 2CD8     		bhi	.L73
 1137 00e4 01A4     		adr	r4, .L78
 1138 00e6 54F821F0 		ldr	pc, [r4, r1, lsl #2]
 1139 00ea 00BF     		.p2align 2
 1140              	.L78:
 1141 00ec 47000000 		.word	.L81+1
 1142 00f0 3F010000 		.word	.L73+1
 1143 00f4 3F010000 		.word	.L73+1
 1144 00f8 3F010000 		.word	.L73+1
 1145 00fc 5B000000 		.word	.L80+1
 1146 0100 3F010000 		.word	.L73+1
 1147 0104 3F010000 		.word	.L73+1
 1148 0108 3F010000 		.word	.L73+1
 1149 010c 6B000000 		.word	.L79+1
 1150 0110 3F010000 		.word	.L73+1
 1151 0114 3F010000 		.word	.L73+1
 1152 0118 3F010000 		.word	.L73+1
 1153 011c 3F010000 		.word	.L73+1
 1154 0120 3F010000 		.word	.L73+1
 1155 0124 3F010000 		.word	.L73+1
 1156 0128 3F010000 		.word	.L73+1
 1157 012c 77000000 		.word	.L77+1
 1158              	.LVL135:
 1159              		.p2align 1
 1160              	.L93:
 225:BBBOOM/Src/oled.c **** 		{x=x0;y0=y0+8;}
 1161              		.loc 1 225 4 view .LVU271
 225:BBBOOM/Src/oled.c **** 		{x=x0;y0=y0+8;}
 1162              		.loc 1 225 9 view .LVU272
 225:BBBOOM/Src/oled.c **** 		{x=x0;y0=y0+8;}
 1163              		.loc 1 225 11 is_stmt 0 view .LVU273
 1164 0130 019B     		ldr	r3, [sp, #4]
 1165 0132 0833     		adds	r3, r3, #8
 1166 0134 DBB2     		uxtb	r3, r3
 1167 0136 0193     		str	r3, [sp, #4]
 1168              	.LVL136:
 225:BBBOOM/Src/oled.c **** 		{x=x0;y0=y0+8;}
 1169              		.loc 1 225 5 view .LVU274
 1170 0138 DDF80CB0 		ldr	fp, [sp, #12]
 1171 013c C7E7     		b	.L87
 1172              	.LVL137:
 1173              	.L73:
 227:BBBOOM/Src/oled.c ****   }
 228:BBBOOM/Src/oled.c **** }
 1174              		.loc 1 228 1 view .LVU275
 1175 013e 05B0     		add	sp, sp, #20
 1176              	.LCFI19:
ARM GAS  C:\Users\Lenovo\AppData\Local\Temp\cc6BOKEM.s 			page 27


 1177              		.cfi_def_cfa_offset 36
 1178              		@ sp needed
 1179 0140 BDE8F08F 		pop	{r4, r5, r6, r7, r8, r9, r10, fp, pc}
 1180              	.LVL138:
 1181              	.L95:
 1182              		.loc 1 228 1 view .LVU276
 1183              		.align	2
 1184              	.L94:
 1185 0144 00000000 		.word	asc2_0806
 1186 0148 00000000 		.word	asc2_1206
 1187 014c 00000000 		.word	asc2_1608
 1188 0150 00000000 		.word	asc2_2412
 1189              		.cfi_endproc
 1190              	.LFE76:
 1192              		.section	.text.OLED_ShowString,"ax",%progbits
 1193              		.align	1
 1194              		.global	OLED_ShowString
 1195              		.syntax unified
 1196              		.thumb
 1197              		.thumb_func
 1199              	OLED_ShowString:
 1200              	.LVL139:
 1201              	.LFB77:
 229:BBBOOM/Src/oled.c **** 
 230:BBBOOM/Src/oled.c **** 
 231:BBBOOM/Src/oled.c **** //显示字符串
 232:BBBOOM/Src/oled.c **** //x,y:起点坐标  
 233:BBBOOM/Src/oled.c **** //size1:字体大小 
 234:BBBOOM/Src/oled.c **** //*chr:字符串起始地址 
 235:BBBOOM/Src/oled.c **** //mode:0,反色显示;1,正常显示
 236:BBBOOM/Src/oled.c **** void OLED_ShowString(u8 x,u8 y,u8 *chr,u8 size1,u8 mode)
 237:BBBOOM/Src/oled.c **** {
 1202              		.loc 1 237 1 is_stmt 1 view -0
 1203              		.cfi_startproc
 1204              		@ args = 4, pretend = 0, frame = 0
 1205              		@ frame_needed = 0, uses_anonymous_args = 0
 1206              		.loc 1 237 1 is_stmt 0 view .LVU278
 1207 0000 2DE9F041 		push	{r4, r5, r6, r7, r8, lr}
 1208              	.LCFI20:
 1209              		.cfi_def_cfa_offset 24
 1210              		.cfi_offset 4, -24
 1211              		.cfi_offset 5, -20
 1212              		.cfi_offset 6, -16
 1213              		.cfi_offset 7, -12
 1214              		.cfi_offset 8, -8
 1215              		.cfi_offset 14, -4
 1216 0004 82B0     		sub	sp, sp, #8
 1217              	.LCFI21:
 1218              		.cfi_def_cfa_offset 32
 1219 0006 0446     		mov	r4, r0
 1220 0008 0F46     		mov	r7, r1
 1221 000a 1546     		mov	r5, r2
 1222 000c 1E46     		mov	r6, r3
 1223 000e 9DF82080 		ldrb	r8, [sp, #32]	@ zero_extendqisi2
 238:BBBOOM/Src/oled.c **** 	while((*chr>=' ')&&(*chr<='~'))//判断是不是非法字符!
 1224              		.loc 1 238 2 is_stmt 1 view .LVU279
 1225              		.loc 1 238 7 is_stmt 0 view .LVU280
ARM GAS  C:\Users\Lenovo\AppData\Local\Temp\cc6BOKEM.s 			page 28


 1226 0012 02E0     		b	.L97
 1227              	.LVL140:
 1228              	.L103:
 239:BBBOOM/Src/oled.c **** 	{
 240:BBBOOM/Src/oled.c **** 		OLED_ShowChar(x,y,*chr,size1,mode);
 241:BBBOOM/Src/oled.c **** 		if(size1==8)x+=6;
 1229              		.loc 1 241 15 is_stmt 1 discriminator 1 view .LVU281
 1230              		.loc 1 241 16 is_stmt 0 discriminator 1 view .LVU282
 1231 0014 0634     		adds	r4, r4, #6
 1232              	.LVL141:
 1233              		.loc 1 241 16 discriminator 1 view .LVU283
 1234 0016 E4B2     		uxtb	r4, r4
 1235              	.LVL142:
 1236              	.L99:
 242:BBBOOM/Src/oled.c **** 		else x+=size1/2;
 243:BBBOOM/Src/oled.c **** 		chr++;
 1237              		.loc 1 243 3 is_stmt 1 view .LVU284
 1238              		.loc 1 243 6 is_stmt 0 view .LVU285
 1239 0018 0135     		adds	r5, r5, #1
 1240              	.LVL143:
 1241              	.L97:
 238:BBBOOM/Src/oled.c **** 	{
 1242              		.loc 1 238 19 is_stmt 1 view .LVU286
 238:BBBOOM/Src/oled.c **** 	{
 1243              		.loc 1 238 9 is_stmt 0 view .LVU287
 1244 001a 2A78     		ldrb	r2, [r5]	@ zero_extendqisi2
 238:BBBOOM/Src/oled.c **** 	{
 1245              		.loc 1 238 19 view .LVU288
 1246 001c A2F12000 		sub	r0, r2, #32
 1247 0020 C0B2     		uxtb	r0, r0
 1248 0022 5E28     		cmp	r0, #94
 1249 0024 0CD8     		bhi	.L102
 240:BBBOOM/Src/oled.c **** 		if(size1==8)x+=6;
 1250              		.loc 1 240 3 is_stmt 1 view .LVU289
 1251 0026 CDF80080 		str	r8, [sp]
 1252 002a 3346     		mov	r3, r6
 1253 002c 3946     		mov	r1, r7
 1254 002e 2046     		mov	r0, r4
 1255 0030 FFF7FEFF 		bl	OLED_ShowChar
 1256              	.LVL144:
 241:BBBOOM/Src/oled.c **** 		else x+=size1/2;
 1257              		.loc 1 241 3 view .LVU290
 241:BBBOOM/Src/oled.c **** 		else x+=size1/2;
 1258              		.loc 1 241 5 is_stmt 0 view .LVU291
 1259 0034 082E     		cmp	r6, #8
 1260 0036 EDD0     		beq	.L103
 242:BBBOOM/Src/oled.c **** 		chr++;
 1261              		.loc 1 242 8 is_stmt 1 view .LVU292
 242:BBBOOM/Src/oled.c **** 		chr++;
 1262              		.loc 1 242 9 is_stmt 0 view .LVU293
 1263 0038 04EB5604 		add	r4, r4, r6, lsr #1
 1264              	.LVL145:
 242:BBBOOM/Src/oled.c **** 		chr++;
 1265              		.loc 1 242 9 view .LVU294
 1266 003c E4B2     		uxtb	r4, r4
 1267              	.LVL146:
 242:BBBOOM/Src/oled.c **** 		chr++;
ARM GAS  C:\Users\Lenovo\AppData\Local\Temp\cc6BOKEM.s 			page 29


 1268              		.loc 1 242 9 view .LVU295
 1269 003e EBE7     		b	.L99
 1270              	.L102:
 244:BBBOOM/Src/oled.c ****   }
 245:BBBOOM/Src/oled.c **** }
 1271              		.loc 1 245 1 view .LVU296
 1272 0040 02B0     		add	sp, sp, #8
 1273              	.LCFI22:
 1274              		.cfi_def_cfa_offset 24
 1275              		@ sp needed
 1276 0042 BDE8F081 		pop	{r4, r5, r6, r7, r8, pc}
 1277              		.loc 1 245 1 view .LVU297
 1278              		.cfi_endproc
 1279              	.LFE77:
 1281              		.section	.text.OLED_Pow,"ax",%progbits
 1282              		.align	1
 1283              		.global	OLED_Pow
 1284              		.syntax unified
 1285              		.thumb
 1286              		.thumb_func
 1288              	OLED_Pow:
 1289              	.LVL147:
 1290              	.LFB78:
 246:BBBOOM/Src/oled.c **** 
 247:BBBOOM/Src/oled.c **** //m^n
 248:BBBOOM/Src/oled.c **** u32 OLED_Pow(u8 m,u8 n)
 249:BBBOOM/Src/oled.c **** {
 1291              		.loc 1 249 1 is_stmt 1 view -0
 1292              		.cfi_startproc
 1293              		@ args = 0, pretend = 0, frame = 0
 1294              		@ frame_needed = 0, uses_anonymous_args = 0
 1295              		@ link register save eliminated.
 1296              		.loc 1 249 1 is_stmt 0 view .LVU299
 1297 0000 0246     		mov	r2, r0
 250:BBBOOM/Src/oled.c **** 	u32 result=1;
 1298              		.loc 1 250 2 is_stmt 1 view .LVU300
 1299              	.LVL148:
 251:BBBOOM/Src/oled.c **** 	while(n--)
 1300              		.loc 1 251 2 view .LVU301
 250:BBBOOM/Src/oled.c **** 	u32 result=1;
 1301              		.loc 1 250 6 is_stmt 0 view .LVU302
 1302 0002 0120     		movs	r0, #1
 1303              	.LVL149:
 1304              		.loc 1 251 7 view .LVU303
 1305 0004 02E0     		b	.L105
 1306              	.LVL150:
 1307              	.L106:
 252:BBBOOM/Src/oled.c **** 	{
 253:BBBOOM/Src/oled.c **** 	  result*=m;
 1308              		.loc 1 253 4 is_stmt 1 view .LVU304
 1309              		.loc 1 253 10 is_stmt 0 view .LVU305
 1310 0006 02FB00F0 		mul	r0, r2, r0
 1311              	.LVL151:
 251:BBBOOM/Src/oled.c **** 	while(n--)
 1312              		.loc 1 251 9 view .LVU306
 1313 000a 1946     		mov	r1, r3
 1314              	.LVL152:
ARM GAS  C:\Users\Lenovo\AppData\Local\Temp\cc6BOKEM.s 			page 30


 1315              	.L105:
 251:BBBOOM/Src/oled.c **** 	while(n--)
 1316              		.loc 1 251 8 is_stmt 1 view .LVU307
 251:BBBOOM/Src/oled.c **** 	while(n--)
 1317              		.loc 1 251 9 is_stmt 0 view .LVU308
 1318 000c 4B1E     		subs	r3, r1, #1
 1319 000e DBB2     		uxtb	r3, r3
 1320              	.LVL153:
 251:BBBOOM/Src/oled.c **** 	while(n--)
 1321              		.loc 1 251 8 view .LVU309
 1322 0010 0029     		cmp	r1, #0
 1323 0012 F8D1     		bne	.L106
 254:BBBOOM/Src/oled.c **** 	}
 255:BBBOOM/Src/oled.c **** 	return result;
 1324              		.loc 1 255 2 is_stmt 1 view .LVU310
 256:BBBOOM/Src/oled.c **** }
 1325              		.loc 1 256 1 is_stmt 0 view .LVU311
 1326 0014 7047     		bx	lr
 1327              		.cfi_endproc
 1328              	.LFE78:
 1330              		.section	.text.OLED_ShowNum,"ax",%progbits
 1331              		.align	1
 1332              		.global	OLED_ShowNum
 1333              		.syntax unified
 1334              		.thumb
 1335              		.thumb_func
 1337              	OLED_ShowNum:
 1338              	.LVL154:
 1339              	.LFB79:
 257:BBBOOM/Src/oled.c **** 
 258:BBBOOM/Src/oled.c **** //显示数字
 259:BBBOOM/Src/oled.c **** //x,y :起点坐标
 260:BBBOOM/Src/oled.c **** //num :要显示的数字
 261:BBBOOM/Src/oled.c **** //len :数字的位数
 262:BBBOOM/Src/oled.c **** //size:字体大小
 263:BBBOOM/Src/oled.c **** //mode:0,反色显示;1,正常显示
 264:BBBOOM/Src/oled.c **** void OLED_ShowNum(u8 x,u8 y,u32 num,u8 len,u8 size1,u8 mode)
 265:BBBOOM/Src/oled.c **** {
 1340              		.loc 1 265 1 is_stmt 1 view -0
 1341              		.cfi_startproc
 1342              		@ args = 8, pretend = 0, frame = 0
 1343              		@ frame_needed = 0, uses_anonymous_args = 0
 1344              		.loc 1 265 1 is_stmt 0 view .LVU313
 1345 0000 2DE9F04F 		push	{r4, r5, r6, r7, r8, r9, r10, fp, lr}
 1346              	.LCFI23:
 1347              		.cfi_def_cfa_offset 36
 1348              		.cfi_offset 4, -36
 1349              		.cfi_offset 5, -32
 1350              		.cfi_offset 6, -28
 1351              		.cfi_offset 7, -24
 1352              		.cfi_offset 8, -20
 1353              		.cfi_offset 9, -16
 1354              		.cfi_offset 10, -12
 1355              		.cfi_offset 11, -8
 1356              		.cfi_offset 14, -4
 1357 0004 83B0     		sub	sp, sp, #12
 1358              	.LCFI24:
ARM GAS  C:\Users\Lenovo\AppData\Local\Temp\cc6BOKEM.s 			page 31


 1359              		.cfi_def_cfa_offset 48
 1360 0006 0746     		mov	r7, r0
 1361 0008 8846     		mov	r8, r1
 1362 000a 9146     		mov	r9, r2
 1363 000c 1D46     		mov	r5, r3
 1364 000e 9DF83060 		ldrb	r6, [sp, #48]	@ zero_extendqisi2
 1365 0012 9DF834A0 		ldrb	r10, [sp, #52]	@ zero_extendqisi2
 266:BBBOOM/Src/oled.c **** 	u8 t,temp,m=0;
 1366              		.loc 1 266 2 is_stmt 1 view .LVU314
 1367              	.LVL155:
 267:BBBOOM/Src/oled.c **** 	if(size1==8)m=2;
 1368              		.loc 1 267 2 view .LVU315
 1369              		.loc 1 267 4 is_stmt 0 view .LVU316
 1370 0016 082E     		cmp	r6, #8
 1371 0018 03D0     		beq	.L113
 266:BBBOOM/Src/oled.c **** 	u8 t,temp,m=0;
 1372              		.loc 1 266 12 view .LVU317
 1373 001a 4FF0000B 		mov	fp, #0
 1374              	.L108:
 1375              	.LVL156:
 268:BBBOOM/Src/oled.c **** 	for(t=0;t<len;t++)
 1376              		.loc 1 268 2 is_stmt 1 view .LVU318
 1377              		.loc 1 268 7 is_stmt 0 view .LVU319
 1378 001e 0024     		movs	r4, #0
 1379              		.loc 1 268 2 view .LVU320
 1380 0020 11E0     		b	.L109
 1381              	.LVL157:
 1382              	.L113:
 267:BBBOOM/Src/oled.c **** 	if(size1==8)m=2;
 1383              		.loc 1 267 15 view .LVU321
 1384 0022 4FF0020B 		mov	fp, #2
 1385 0026 FAE7     		b	.L108
 1386              	.LVL158:
 1387              	.L110:
 269:BBBOOM/Src/oled.c **** 	{
 270:BBBOOM/Src/oled.c **** 		temp=(num/OLED_Pow(10,len-t-1))%10;
 271:BBBOOM/Src/oled.c **** 			if(temp==0)
 272:BBBOOM/Src/oled.c **** 			{
 273:BBBOOM/Src/oled.c **** 				OLED_ShowChar(x+(size1/2+m)*t,y,'0',size1,mode);
 274:BBBOOM/Src/oled.c ****       }
 275:BBBOOM/Src/oled.c **** 			else 
 276:BBBOOM/Src/oled.c **** 			{
 277:BBBOOM/Src/oled.c **** 			  OLED_ShowChar(x+(size1/2+m)*t,y,temp+'0',size1,mode);
 1388              		.loc 1 277 6 is_stmt 1 view .LVU322
 1389 0028 3032     		adds	r2, r2, #48
 1390 002a 0BEB5600 		add	r0, fp, r6, lsr #1
 1391              	.LVL159:
 1392              		.loc 1 277 6 is_stmt 0 view .LVU323
 1393 002e 00FB0470 		mla	r0, r0, r4, r7
 1394 0032 CDF800A0 		str	r10, [sp]
 1395 0036 3346     		mov	r3, r6
 1396 0038 D2B2     		uxtb	r2, r2
 1397 003a 4146     		mov	r1, r8
 1398 003c C0B2     		uxtb	r0, r0
 1399 003e FFF7FEFF 		bl	OLED_ShowChar
 1400              	.LVL160:
 1401              	.L111:
ARM GAS  C:\Users\Lenovo\AppData\Local\Temp\cc6BOKEM.s 			page 32


 268:BBBOOM/Src/oled.c **** 	for(t=0;t<len;t++)
 1402              		.loc 1 268 17 is_stmt 1 discriminator 2 view .LVU324
 1403 0042 0134     		adds	r4, r4, #1
 1404              	.LVL161:
 268:BBBOOM/Src/oled.c **** 	for(t=0;t<len;t++)
 1405              		.loc 1 268 17 is_stmt 0 discriminator 2 view .LVU325
 1406 0044 E4B2     		uxtb	r4, r4
 1407              	.LVL162:
 1408              	.L109:
 268:BBBOOM/Src/oled.c **** 	for(t=0;t<len;t++)
 1409              		.loc 1 268 11 is_stmt 1 discriminator 1 view .LVU326
 1410 0046 AC42     		cmp	r4, r5
 1411 0048 20D2     		bcs	.L115
 270:BBBOOM/Src/oled.c **** 			if(temp==0)
 1412              		.loc 1 270 3 view .LVU327
 270:BBBOOM/Src/oled.c **** 			if(temp==0)
 1413              		.loc 1 270 28 is_stmt 0 view .LVU328
 1414 004a 291B     		subs	r1, r5, r4
 1415 004c C9B2     		uxtb	r1, r1
 270:BBBOOM/Src/oled.c **** 			if(temp==0)
 1416              		.loc 1 270 13 view .LVU329
 1417 004e 0139     		subs	r1, r1, #1
 1418 0050 C9B2     		uxtb	r1, r1
 1419 0052 0A20     		movs	r0, #10
 1420 0054 FFF7FEFF 		bl	OLED_Pow
 1421              	.LVL163:
 270:BBBOOM/Src/oled.c **** 			if(temp==0)
 1422              		.loc 1 270 12 view .LVU330
 1423 0058 B9FBF0F0 		udiv	r0, r9, r0
 270:BBBOOM/Src/oled.c **** 			if(temp==0)
 1424              		.loc 1 270 34 view .LVU331
 1425 005c 0D4A     		ldr	r2, .L116
 1426 005e A2FB0032 		umull	r3, r2, r2, r0
 1427 0062 D208     		lsrs	r2, r2, #3
 1428 0064 02EB8202 		add	r2, r2, r2, lsl #2
 1429 0068 A0EB4202 		sub	r2, r0, r2, lsl #1
 1430              	.LVL164:
 271:BBBOOM/Src/oled.c **** 			{
 1431              		.loc 1 271 4 is_stmt 1 view .LVU332
 271:BBBOOM/Src/oled.c **** 			{
 1432              		.loc 1 271 6 is_stmt 0 view .LVU333
 1433 006c 12F0FF02 		ands	r2, r2, #255
 1434              	.LVL165:
 271:BBBOOM/Src/oled.c **** 			{
 1435              		.loc 1 271 6 view .LVU334
 1436 0070 DAD1     		bne	.L110
 273:BBBOOM/Src/oled.c ****       }
 1437              		.loc 1 273 5 is_stmt 1 view .LVU335
 1438 0072 0BEB5600 		add	r0, fp, r6, lsr #1
 1439              	.LVL166:
 273:BBBOOM/Src/oled.c ****       }
 1440              		.loc 1 273 5 is_stmt 0 view .LVU336
 1441 0076 00FB0470 		mla	r0, r0, r4, r7
 1442 007a CDF800A0 		str	r10, [sp]
 1443 007e 3346     		mov	r3, r6
 1444 0080 3022     		movs	r2, #48
 1445 0082 4146     		mov	r1, r8
ARM GAS  C:\Users\Lenovo\AppData\Local\Temp\cc6BOKEM.s 			page 33


 1446 0084 C0B2     		uxtb	r0, r0
 1447 0086 FFF7FEFF 		bl	OLED_ShowChar
 1448              	.LVL167:
 1449 008a DAE7     		b	.L111
 1450              	.LVL168:
 1451              	.L115:
 278:BBBOOM/Src/oled.c **** 			}
 279:BBBOOM/Src/oled.c ****   }
 280:BBBOOM/Src/oled.c **** }
 1452              		.loc 1 280 1 view .LVU337
 1453 008c 03B0     		add	sp, sp, #12
 1454              	.LCFI25:
 1455              		.cfi_def_cfa_offset 36
 1456              		@ sp needed
 1457 008e BDE8F08F 		pop	{r4, r5, r6, r7, r8, r9, r10, fp, pc}
 1458              	.LVL169:
 1459              	.L117:
 1460              		.loc 1 280 1 view .LVU338
 1461 0092 00BF     		.align	2
 1462              	.L116:
 1463 0094 CDCCCCCC 		.word	-858993459
 1464              		.cfi_endproc
 1465              	.LFE79:
 1467              		.section	.text.OLED_ShowChinese,"ax",%progbits
 1468              		.align	1
 1469              		.global	OLED_ShowChinese
 1470              		.syntax unified
 1471              		.thumb
 1472              		.thumb_func
 1474              	OLED_ShowChinese:
 1475              	.LVL170:
 1476              	.LFB80:
 281:BBBOOM/Src/oled.c **** 
 282:BBBOOM/Src/oled.c **** //显示汉字
 283:BBBOOM/Src/oled.c **** //x,y:起点坐标
 284:BBBOOM/Src/oled.c **** //num:汉字对应的序号
 285:BBBOOM/Src/oled.c **** //mode:0,反色显示;1,正常显示
 286:BBBOOM/Src/oled.c **** void OLED_ShowChinese(u8 x,u8 y,u8 num,u8 size1,u8 mode)
 287:BBBOOM/Src/oled.c **** {
 1477              		.loc 1 287 1 is_stmt 1 view -0
 1478              		.cfi_startproc
 1479              		@ args = 4, pretend = 0, frame = 16
 1480              		@ frame_needed = 0, uses_anonymous_args = 0
 1481              		.loc 1 287 1 is_stmt 0 view .LVU340
 1482 0000 2DE9F04F 		push	{r4, r5, r6, r7, r8, r9, r10, fp, lr}
 1483              	.LCFI26:
 1484              		.cfi_def_cfa_offset 36
 1485              		.cfi_offset 4, -36
 1486              		.cfi_offset 5, -32
 1487              		.cfi_offset 6, -28
 1488              		.cfi_offset 7, -24
 1489              		.cfi_offset 8, -20
 1490              		.cfi_offset 9, -16
 1491              		.cfi_offset 10, -12
 1492              		.cfi_offset 11, -8
 1493              		.cfi_offset 14, -4
 1494 0004 85B0     		sub	sp, sp, #20
ARM GAS  C:\Users\Lenovo\AppData\Local\Temp\cc6BOKEM.s 			page 34


 1495              	.LCFI27:
 1496              		.cfi_def_cfa_offset 56
 1497 0006 0290     		str	r0, [sp, #8]
 1498 0008 0191     		str	r1, [sp, #4]
 1499 000a 0392     		str	r2, [sp, #12]
 1500 000c 9B46     		mov	fp, r3
 1501 000e 9DF83870 		ldrb	r7, [sp, #56]	@ zero_extendqisi2
 288:BBBOOM/Src/oled.c **** 	u8 m,temp;
 1502              		.loc 1 288 2 is_stmt 1 view .LVU341
 289:BBBOOM/Src/oled.c **** 	u8 x0=x,y0=y;
 1503              		.loc 1 289 2 view .LVU342
 1504              	.LVL171:
 290:BBBOOM/Src/oled.c **** 	u16 i,size3=(size1/8+((size1%8)?1:0))*size1;  //得到字体一个字符对应点阵集所占的字节数
 1505              		.loc 1 290 2 view .LVU343
 1506              		.loc 1 290 35 is_stmt 0 view .LVU344
 1507 0012 13F00708 		ands	r8, r3, #7
 1508 0016 18BF     		it	ne
 1509 0018 4FF00108 		movne	r8, #1
 1510              		.loc 1 290 22 view .LVU345
 1511 001c 08EBD308 		add	r8, r8, r3, lsr #3
 1512              		.loc 1 290 8 view .LVU346
 1513 0020 08FB03F8 		mul	r8, r8, r3
 1514              	.LVL172:
 291:BBBOOM/Src/oled.c **** 	for(i=0;i<size3;i++)
 1515              		.loc 1 291 2 is_stmt 1 view .LVU347
 1516              		.loc 1 291 7 is_stmt 0 view .LVU348
 1517 0024 4FF0000A 		mov	r10, #0
 1518 0028 4346     		mov	r3, r8
 1519              	.LVL173:
 1520              		.loc 1 291 7 view .LVU349
 1521 002a 8046     		mov	r8, r0
 1522              	.LVL174:
 1523              		.loc 1 291 7 view .LVU350
 1524 002c D146     		mov	r9, r10
 1525 002e 9A46     		mov	r10, r3
 1526              		.loc 1 291 2 view .LVU351
 1527 0030 3DE0     		b	.L119
 1528              	.LVL175:
 1529              	.L121:
 1530              		.loc 1 291 2 view .LVU352
 1531 0032 BBF1400F 		cmp	fp, #64
 1532 0036 58D1     		bne	.L118
 292:BBBOOM/Src/oled.c **** 	{
 293:BBBOOM/Src/oled.c **** 		if(size1==16)
 294:BBBOOM/Src/oled.c **** 				{temp=Hzk1[num][i];}//调用16*16字体
 295:BBBOOM/Src/oled.c **** 		else if(size1==24)
 296:BBBOOM/Src/oled.c **** 				{temp=Hzk2[num][i];}//调用24*24字体
 297:BBBOOM/Src/oled.c **** 		else if(size1==32)       
 298:BBBOOM/Src/oled.c **** 				{temp=Hzk3[num][i];}//调用32*32字体
 299:BBBOOM/Src/oled.c **** 		else if(size1==64)
 300:BBBOOM/Src/oled.c **** 				{temp=Hzk4[num][i];}//调用64*64字体
 1533              		.loc 1 300 6 is_stmt 1 view .LVU353
 1534              		.loc 1 300 10 is_stmt 0 view .LVU354
 1535 0038 2D49     		ldr	r1, .L136
 1536 003a 039B     		ldr	r3, [sp, #12]
 1537 003c 01EB4321 		add	r1, r1, r3, lsl #9
 1538 0040 11F80960 		ldrb	r6, [r1, r9]	@ zero_extendqisi2
ARM GAS  C:\Users\Lenovo\AppData\Local\Temp\cc6BOKEM.s 			page 35


 1539              	.LVL176:
 1540              		.loc 1 300 10 view .LVU355
 1541 0044 05E0     		b	.L126
 1542              	.LVL177:
 1543              	.L122:
 294:BBBOOM/Src/oled.c **** 		else if(size1==24)
 1544              		.loc 1 294 6 is_stmt 1 view .LVU356
 294:BBBOOM/Src/oled.c **** 		else if(size1==24)
 1545              		.loc 1 294 10 is_stmt 0 view .LVU357
 1546 0046 2B49     		ldr	r1, .L136+4
 1547 0048 039B     		ldr	r3, [sp, #12]
 1548 004a 01EB4311 		add	r1, r1, r3, lsl #5
 1549 004e 11F80960 		ldrb	r6, [r1, r9]	@ zero_extendqisi2
 1550              	.LVL178:
 1551              	.L126:
 287:BBBOOM/Src/oled.c **** 	u8 m,temp;
 1552              		.loc 1 287 1 discriminator 1 view .LVU358
 1553 0052 019D     		ldr	r5, [sp, #4]
 1554 0054 0024     		movs	r4, #0
 1555 0056 12E0     		b	.L129
 1556              	.LVL179:
 1557              	.L120:
 298:BBBOOM/Src/oled.c **** 		else if(size1==64)
 1558              		.loc 1 298 6 is_stmt 1 view .LVU359
 298:BBBOOM/Src/oled.c **** 		else if(size1==64)
 1559              		.loc 1 298 10 is_stmt 0 view .LVU360
 1560 0058 2749     		ldr	r1, .L136+8
 1561 005a 039B     		ldr	r3, [sp, #12]
 1562 005c 01EBC311 		add	r1, r1, r3, lsl #7
 1563 0060 11F80960 		ldrb	r6, [r1, r9]	@ zero_extendqisi2
 1564              	.LVL180:
 298:BBBOOM/Src/oled.c **** 		else if(size1==64)
 1565              		.loc 1 298 10 view .LVU361
 1566 0064 F5E7     		b	.L126
 1567              	.LVL181:
 1568              	.L127:
 301:BBBOOM/Src/oled.c **** 		else return;
 302:BBBOOM/Src/oled.c **** 		for(m=0;m<8;m++)
 303:BBBOOM/Src/oled.c **** 		{
 304:BBBOOM/Src/oled.c **** 			if(temp&0x01)OLED_DrawPoint(x,y,mode);
 305:BBBOOM/Src/oled.c **** 			else OLED_DrawPoint(x,y,!mode);
 1569              		.loc 1 305 9 is_stmt 1 view .LVU362
 1570 0066 B7FA87F2 		clz	r2, r7
 1571 006a 5209     		lsrs	r2, r2, #5
 1572 006c 2946     		mov	r1, r5
 1573 006e 4046     		mov	r0, r8
 1574 0070 FFF7FEFF 		bl	OLED_DrawPoint
 1575              	.LVL182:
 1576              	.L128:
 306:BBBOOM/Src/oled.c **** 			temp>>=1;
 1577              		.loc 1 306 4 discriminator 2 view .LVU363
 1578              		.loc 1 306 8 is_stmt 0 discriminator 2 view .LVU364
 1579 0074 7608     		lsrs	r6, r6, #1
 1580              	.LVL183:
 307:BBBOOM/Src/oled.c **** 			y++;
 1581              		.loc 1 307 4 is_stmt 1 discriminator 2 view .LVU365
 1582              		.loc 1 307 5 is_stmt 0 discriminator 2 view .LVU366
ARM GAS  C:\Users\Lenovo\AppData\Local\Temp\cc6BOKEM.s 			page 36


 1583 0076 0135     		adds	r5, r5, #1
 1584              	.LVL184:
 1585              		.loc 1 307 5 discriminator 2 view .LVU367
 1586 0078 EDB2     		uxtb	r5, r5
 1587              	.LVL185:
 302:BBBOOM/Src/oled.c **** 		{
 1588              		.loc 1 302 16 is_stmt 1 discriminator 2 view .LVU368
 1589 007a 0134     		adds	r4, r4, #1
 1590              	.LVL186:
 302:BBBOOM/Src/oled.c **** 		{
 1591              		.loc 1 302 16 is_stmt 0 discriminator 2 view .LVU369
 1592 007c E4B2     		uxtb	r4, r4
 1593              	.LVL187:
 1594              	.L129:
 302:BBBOOM/Src/oled.c **** 		{
 1595              		.loc 1 302 12 is_stmt 1 discriminator 1 view .LVU370
 1596 007e 072C     		cmp	r4, #7
 1597 0080 08D8     		bhi	.L134
 304:BBBOOM/Src/oled.c **** 			else OLED_DrawPoint(x,y,!mode);
 1598              		.loc 1 304 4 view .LVU371
 304:BBBOOM/Src/oled.c **** 			else OLED_DrawPoint(x,y,!mode);
 1599              		.loc 1 304 6 is_stmt 0 view .LVU372
 1600 0082 16F0010F 		tst	r6, #1
 1601 0086 EED0     		beq	.L127
 304:BBBOOM/Src/oled.c **** 			else OLED_DrawPoint(x,y,!mode);
 1602              		.loc 1 304 17 is_stmt 1 discriminator 1 view .LVU373
 1603 0088 3A46     		mov	r2, r7
 1604 008a 2946     		mov	r1, r5
 1605 008c 4046     		mov	r0, r8
 1606 008e FFF7FEFF 		bl	OLED_DrawPoint
 1607              	.LVL188:
 1608 0092 EFE7     		b	.L128
 1609              	.L134:
 308:BBBOOM/Src/oled.c **** 		}
 309:BBBOOM/Src/oled.c **** 		x++;
 1610              		.loc 1 309 3 view .LVU374
 1611              		.loc 1 309 4 is_stmt 0 view .LVU375
 1612 0094 08F10100 		add	r0, r8, #1
 1613 0098 5FFA80F8 		uxtb	r8, r0
 1614              	.LVL189:
 310:BBBOOM/Src/oled.c **** 		if((x-x0)==size1)
 1615              		.loc 1 310 3 is_stmt 1 view .LVU376
 1616              		.loc 1 310 8 is_stmt 0 view .LVU377
 1617 009c 029B     		ldr	r3, [sp, #8]
 1618 009e A8EB0301 		sub	r1, r8, r3
 1619              		.loc 1 310 5 view .LVU378
 1620 00a2 5945     		cmp	r1, fp
 1621 00a4 18D0     		beq	.L135
 1622              	.LVL190:
 1623              	.L131:
 311:BBBOOM/Src/oled.c **** 		{x=x0;y0=y0+8;}
 312:BBBOOM/Src/oled.c **** 		y=y0;
 1624              		.loc 1 312 3 is_stmt 1 discriminator 2 view .LVU379
 291:BBBOOM/Src/oled.c **** 	{
 1625              		.loc 1 291 19 discriminator 2 view .LVU380
 1626 00a6 09F10102 		add	r2, r9, #1
 1627 00aa 1FFA82F9 		uxth	r9, r2
ARM GAS  C:\Users\Lenovo\AppData\Local\Temp\cc6BOKEM.s 			page 37


 1628              	.LVL191:
 1629              	.L119:
 291:BBBOOM/Src/oled.c **** 	{
 1630              		.loc 1 291 11 discriminator 1 view .LVU381
 1631 00ae D145     		cmp	r9, r10
 1632 00b0 1BD2     		bcs	.L118
 293:BBBOOM/Src/oled.c **** 				{temp=Hzk1[num][i];}//调用16*16字体
 1633              		.loc 1 293 3 view .LVU382
 1634 00b2 BBF1200F 		cmp	fp, #32
 1635 00b6 CFD0     		beq	.L120
 1636 00b8 BBD8     		bhi	.L121
 1637 00ba BBF1100F 		cmp	fp, #16
 1638 00be C2D0     		beq	.L122
 1639 00c0 BBF1180F 		cmp	fp, #24
 1640 00c4 11D1     		bne	.L118
 296:BBBOOM/Src/oled.c **** 		else if(size1==32)       
 1641              		.loc 1 296 6 view .LVU383
 296:BBBOOM/Src/oled.c **** 		else if(size1==32)       
 1642              		.loc 1 296 10 is_stmt 0 view .LVU384
 1643 00c6 039B     		ldr	r3, [sp, #12]
 1644 00c8 03EBC304 		add	r4, r3, r3, lsl #3
 1645 00cc 0B49     		ldr	r1, .L136+12
 1646 00ce 01EBC401 		add	r1, r1, r4, lsl #3
 1647 00d2 11F80960 		ldrb	r6, [r1, r9]	@ zero_extendqisi2
 1648              	.LVL192:
 296:BBBOOM/Src/oled.c **** 		else if(size1==32)       
 1649              		.loc 1 296 10 view .LVU385
 1650 00d6 BCE7     		b	.L126
 1651              	.LVL193:
 1652              	.L135:
 311:BBBOOM/Src/oled.c **** 		y=y0;
 1653              		.loc 1 311 4 is_stmt 1 view .LVU386
 311:BBBOOM/Src/oled.c **** 		y=y0;
 1654              		.loc 1 311 9 view .LVU387
 311:BBBOOM/Src/oled.c **** 		y=y0;
 1655              		.loc 1 311 11 is_stmt 0 view .LVU388
 1656 00d8 019B     		ldr	r3, [sp, #4]
 1657 00da 03F10808 		add	r8, r3, #8
 1658 00de 5FFA88F3 		uxtb	r3, r8
 1659 00e2 0193     		str	r3, [sp, #4]
 1660              	.LVL194:
 311:BBBOOM/Src/oled.c **** 		y=y0;
 1661              		.loc 1 311 5 view .LVU389
 1662 00e4 DDF80880 		ldr	r8, [sp, #8]
 1663 00e8 DDE7     		b	.L131
 1664              	.LVL195:
 1665              	.L118:
 313:BBBOOM/Src/oled.c **** 	}
 314:BBBOOM/Src/oled.c **** }
 1666              		.loc 1 314 1 view .LVU390
 1667 00ea 05B0     		add	sp, sp, #20
 1668              	.LCFI28:
 1669              		.cfi_def_cfa_offset 36
 1670              		@ sp needed
 1671 00ec BDE8F08F 		pop	{r4, r5, r6, r7, r8, r9, r10, fp, pc}
 1672              	.LVL196:
 1673              	.L137:
ARM GAS  C:\Users\Lenovo\AppData\Local\Temp\cc6BOKEM.s 			page 38


 1674              		.loc 1 314 1 view .LVU391
 1675              		.align	2
 1676              	.L136:
 1677 00f0 00000000 		.word	Hzk4
 1678 00f4 00000000 		.word	Hzk1
 1679 00f8 00000000 		.word	Hzk3
 1680 00fc 00000000 		.word	Hzk2
 1681              		.cfi_endproc
 1682              	.LFE80:
 1684              		.section	.text.OLED_ScrollDisplay,"ax",%progbits
 1685              		.align	1
 1686              		.global	OLED_ScrollDisplay
 1687              		.syntax unified
 1688              		.thumb
 1689              		.thumb_func
 1691              	OLED_ScrollDisplay:
 1692              	.LVL197:
 1693              	.LFB81:
 315:BBBOOM/Src/oled.c **** 
 316:BBBOOM/Src/oled.c **** //num 显示汉字的个数
 317:BBBOOM/Src/oled.c **** //space 每一遍显示的间隔
 318:BBBOOM/Src/oled.c **** //mode:0,反色显示;1,正常显示
 319:BBBOOM/Src/oled.c **** void OLED_ScrollDisplay(u8 num,u8 space,u8 mode)
 320:BBBOOM/Src/oled.c **** {
 1694              		.loc 1 320 1 is_stmt 1 view -0
 1695              		.cfi_startproc
 1696              		@ args = 0, pretend = 0, frame = 0
 1697              		@ frame_needed = 0, uses_anonymous_args = 0
 1698              		.loc 1 320 1 is_stmt 0 view .LVU393
 1699 0000 2DE9F041 		push	{r4, r5, r6, r7, r8, lr}
 1700              	.LCFI29:
 1701              		.cfi_def_cfa_offset 24
 1702              		.cfi_offset 4, -24
 1703              		.cfi_offset 5, -20
 1704              		.cfi_offset 6, -16
 1705              		.cfi_offset 7, -12
 1706              		.cfi_offset 8, -8
 1707              		.cfi_offset 14, -4
 1708 0004 82B0     		sub	sp, sp, #8
 1709              	.LCFI30:
 1710              		.cfi_def_cfa_offset 32
 1711 0006 8046     		mov	r8, r0
 1712 0008 0F46     		mov	r7, r1
 1713 000a 1646     		mov	r6, r2
 321:BBBOOM/Src/oled.c **** 	u8 i,n,t=0,m=0,r;
 1714              		.loc 1 321 2 is_stmt 1 view .LVU394
 1715              	.LVL198:
 1716              		.loc 1 321 13 is_stmt 0 view .LVU395
 1717 000c 0024     		movs	r4, #0
 1718              		.loc 1 321 9 view .LVU396
 1719 000e 2546     		mov	r5, r4
 1720 0010 42E0     		b	.L149
 1721              	.LVL199:
 1722              	.L160:
 322:BBBOOM/Src/oled.c **** 	while(1)
 323:BBBOOM/Src/oled.c **** 	{
 324:BBBOOM/Src/oled.c **** 		if(m==0)
ARM GAS  C:\Users\Lenovo\AppData\Local\Temp\cc6BOKEM.s 			page 39


 325:BBBOOM/Src/oled.c **** 		{
 326:BBBOOM/Src/oled.c **** 	    OLED_ShowChinese(128,24,t,16,mode); //写入一个汉字保存在OLED_GRAM[][]数组中
 1723              		.loc 1 326 6 is_stmt 1 view .LVU397
 1724 0012 0096     		str	r6, [sp]
 1725 0014 1023     		movs	r3, #16
 1726 0016 2A46     		mov	r2, r5
 1727 0018 1821     		movs	r1, #24
 1728 001a 8020     		movs	r0, #128
 1729 001c FFF7FEFF 		bl	OLED_ShowChinese
 1730              	.LVL200:
 327:BBBOOM/Src/oled.c **** 			t++;
 1731              		.loc 1 327 4 view .LVU398
 1732              		.loc 1 327 5 is_stmt 0 view .LVU399
 1733 0020 0135     		adds	r5, r5, #1
 1734              	.LVL201:
 1735              		.loc 1 327 5 view .LVU400
 1736 0022 EDB2     		uxtb	r5, r5
 1737              	.LVL202:
 1738              		.loc 1 327 5 view .LVU401
 1739 0024 3AE0     		b	.L139
 1740              	.LVL203:
 1741              	.L142:
 328:BBBOOM/Src/oled.c **** 		}
 329:BBBOOM/Src/oled.c **** 		if(t==num)
 330:BBBOOM/Src/oled.c **** 			{
 331:BBBOOM/Src/oled.c **** 				for(r=0;r<16*space;r++)      //显示间隔
 332:BBBOOM/Src/oled.c **** 				 {
 333:BBBOOM/Src/oled.c **** 					for(i=1;i<144;i++)
 334:BBBOOM/Src/oled.c **** 						{
 335:BBBOOM/Src/oled.c **** 							for(n=0;n<8;n++)
 336:BBBOOM/Src/oled.c **** 							{
 337:BBBOOM/Src/oled.c **** 								OLED_GRAM[i-1][n]=OLED_GRAM[i][n];
 1742              		.loc 1 337 9 is_stmt 1 discriminator 3 view .LVU402
 1743              		.loc 1 337 20 is_stmt 0 discriminator 3 view .LVU403
 1744 0026 411E     		subs	r1, r0, #1
 1745              		.loc 1 337 39 discriminator 3 view .LVU404
 1746 0028 204A     		ldr	r2, .L163
 1747 002a 02EBC00C 		add	ip, r2, r0, lsl #3
 1748 002e 1CF803C0 		ldrb	ip, [ip, r3]	@ zero_extendqisi2
 1749              		.loc 1 337 26 discriminator 3 view .LVU405
 1750 0032 02EBC102 		add	r2, r2, r1, lsl #3
 1751 0036 02F803C0 		strb	ip, [r2, r3]
 335:BBBOOM/Src/oled.c **** 							{
 1752              		.loc 1 335 21 is_stmt 1 discriminator 3 view .LVU406
 1753 003a 0133     		adds	r3, r3, #1
 1754              	.LVL204:
 335:BBBOOM/Src/oled.c **** 							{
 1755              		.loc 1 335 21 is_stmt 0 discriminator 3 view .LVU407
 1756 003c DBB2     		uxtb	r3, r3
 1757              	.LVL205:
 1758              	.L143:
 335:BBBOOM/Src/oled.c **** 							{
 1759              		.loc 1 335 17 is_stmt 1 discriminator 1 view .LVU408
 1760 003e 072B     		cmp	r3, #7
 1761 0040 F1D9     		bls	.L142
 333:BBBOOM/Src/oled.c **** 						{
 1762              		.loc 1 333 21 discriminator 2 view .LVU409
ARM GAS  C:\Users\Lenovo\AppData\Local\Temp\cc6BOKEM.s 			page 40


 1763 0042 0130     		adds	r0, r0, #1
 1764              	.LVL206:
 333:BBBOOM/Src/oled.c **** 						{
 1765              		.loc 1 333 21 is_stmt 0 discriminator 2 view .LVU410
 1766 0044 C0B2     		uxtb	r0, r0
 1767              	.LVL207:
 1768              	.L144:
 333:BBBOOM/Src/oled.c **** 						{
 1769              		.loc 1 333 15 is_stmt 1 discriminator 1 view .LVU411
 1770 0046 8F28     		cmp	r0, #143
 1771 0048 01D8     		bhi	.L156
 335:BBBOOM/Src/oled.c **** 							{
 1772              		.loc 1 335 13 is_stmt 0 view .LVU412
 1773 004a 0023     		movs	r3, #0
 1774 004c F7E7     		b	.L143
 1775              	.L156:
 338:BBBOOM/Src/oled.c **** 							}
 339:BBBOOM/Src/oled.c **** 						}
 340:BBBOOM/Src/oled.c ****            OLED_Refresh();
 1776              		.loc 1 340 12 is_stmt 1 discriminator 2 view .LVU413
 1777 004e FFF7FEFF 		bl	OLED_Refresh
 1778              	.LVL208:
 331:BBBOOM/Src/oled.c **** 				 {
 1779              		.loc 1 331 25 discriminator 2 view .LVU414
 1780 0052 0135     		adds	r5, r5, #1
 1781              	.LVL209:
 331:BBBOOM/Src/oled.c **** 				 {
 1782              		.loc 1 331 25 is_stmt 0 discriminator 2 view .LVU415
 1783 0054 EDB2     		uxtb	r5, r5
 1784              	.LVL210:
 1785              	.L140:
 331:BBBOOM/Src/oled.c **** 				 {
 1786              		.loc 1 331 14 is_stmt 1 discriminator 1 view .LVU416
 1787 0056 B5EB071F 		cmp	r5, r7, lsl #4
 1788 005a 03DA     		bge	.L157
 333:BBBOOM/Src/oled.c **** 						{
 1789              		.loc 1 333 11 is_stmt 0 view .LVU417
 1790 005c 0120     		movs	r0, #1
 1791 005e F2E7     		b	.L144
 1792              	.LVL211:
 1793              	.L161:
 331:BBBOOM/Src/oled.c **** 				 {
 1794              		.loc 1 331 10 view .LVU418
 1795 0060 0025     		movs	r5, #0
 1796              	.LVL212:
 331:BBBOOM/Src/oled.c **** 				 {
 1797              		.loc 1 331 10 view .LVU419
 1798 0062 F8E7     		b	.L140
 1799              	.LVL213:
 1800              	.L157:
 341:BBBOOM/Src/oled.c **** 				 }
 342:BBBOOM/Src/oled.c ****         t=0;
 1801              		.loc 1 342 10 view .LVU420
 1802 0064 0025     		movs	r5, #0
 1803              	.LVL214:
 1804              		.loc 1 342 10 view .LVU421
 1805 0066 1BE0     		b	.L141
ARM GAS  C:\Users\Lenovo\AppData\Local\Temp\cc6BOKEM.s 			page 41


 1806              	.LVL215:
 1807              	.L162:
 343:BBBOOM/Src/oled.c ****       }
 344:BBBOOM/Src/oled.c **** 		m++;
 345:BBBOOM/Src/oled.c **** 		if(m==16){m=0;}
 1808              		.loc 1 345 14 view .LVU422
 1809 0068 0024     		movs	r4, #0
 1810              	.LVL216:
 1811              		.loc 1 345 14 view .LVU423
 1812 006a 1DE0     		b	.L145
 1813              	.LVL217:
 1814              	.L159:
 346:BBBOOM/Src/oled.c **** 		for(i=1;i<144;i++)   //实现左移
 1815              		.loc 1 346 18 is_stmt 1 discriminator 2 view .LVU424
 1816 006c 0130     		adds	r0, r0, #1
 1817              	.LVL218:
 1818              		.loc 1 346 18 is_stmt 0 discriminator 2 view .LVU425
 1819 006e C0B2     		uxtb	r0, r0
 1820              	.LVL219:
 1821              	.L146:
 1822              		.loc 1 346 12 is_stmt 1 discriminator 1 view .LVU426
 1823 0070 8F28     		cmp	r0, #143
 1824 0072 0FD8     		bhi	.L158
 347:BBBOOM/Src/oled.c **** 		{
 348:BBBOOM/Src/oled.c **** 			for(n=0;n<8;n++)
 1825              		.loc 1 348 9 is_stmt 0 view .LVU427
 1826 0074 0023     		movs	r3, #0
 1827              	.L148:
 1828              	.LVL220:
 1829              		.loc 1 348 13 is_stmt 1 discriminator 1 view .LVU428
 1830 0076 072B     		cmp	r3, #7
 1831 0078 F8D8     		bhi	.L159
 349:BBBOOM/Src/oled.c **** 			{
 350:BBBOOM/Src/oled.c **** 				OLED_GRAM[i-1][n]=OLED_GRAM[i][n];
 1832              		.loc 1 350 5 discriminator 3 view .LVU429
 1833              		.loc 1 350 16 is_stmt 0 discriminator 3 view .LVU430
 1834 007a 411E     		subs	r1, r0, #1
 1835              		.loc 1 350 35 discriminator 3 view .LVU431
 1836 007c 0B4A     		ldr	r2, .L163
 1837 007e 02EBC00C 		add	ip, r2, r0, lsl #3
 1838 0082 1CF803C0 		ldrb	ip, [ip, r3]	@ zero_extendqisi2
 1839              		.loc 1 350 22 discriminator 3 view .LVU432
 1840 0086 02EBC102 		add	r2, r2, r1, lsl #3
 1841 008a 02F803C0 		strb	ip, [r2, r3]
 348:BBBOOM/Src/oled.c **** 			{
 1842              		.loc 1 348 17 is_stmt 1 discriminator 3 view .LVU433
 1843 008e 0133     		adds	r3, r3, #1
 1844              	.LVL221:
 348:BBBOOM/Src/oled.c **** 			{
 1845              		.loc 1 348 17 is_stmt 0 discriminator 3 view .LVU434
 1846 0090 DBB2     		uxtb	r3, r3
 1847              	.LVL222:
 348:BBBOOM/Src/oled.c **** 			{
 1848              		.loc 1 348 17 discriminator 3 view .LVU435
 1849 0092 F0E7     		b	.L148
 1850              	.LVL223:
 1851              	.L158:
ARM GAS  C:\Users\Lenovo\AppData\Local\Temp\cc6BOKEM.s 			page 42


 351:BBBOOM/Src/oled.c **** 			}
 352:BBBOOM/Src/oled.c **** 		}
 353:BBBOOM/Src/oled.c **** 		OLED_Refresh();
 1852              		.loc 1 353 3 is_stmt 1 view .LVU436
 1853 0094 FFF7FEFF 		bl	OLED_Refresh
 1854              	.LVL224:
 322:BBBOOM/Src/oled.c **** 	{
 1855              		.loc 1 322 7 view .LVU437
 1856              	.L149:
 322:BBBOOM/Src/oled.c **** 	{
 1857              		.loc 1 322 2 view .LVU438
 324:BBBOOM/Src/oled.c **** 		{
 1858              		.loc 1 324 3 view .LVU439
 324:BBBOOM/Src/oled.c **** 		{
 1859              		.loc 1 324 5 is_stmt 0 view .LVU440
 1860 0098 002C     		cmp	r4, #0
 1861 009a BAD0     		beq	.L160
 1862              	.L139:
 329:BBBOOM/Src/oled.c **** 			{
 1863              		.loc 1 329 3 is_stmt 1 view .LVU441
 329:BBBOOM/Src/oled.c **** 			{
 1864              		.loc 1 329 5 is_stmt 0 view .LVU442
 1865 009c 4545     		cmp	r5, r8
 1866 009e DFD0     		beq	.L161
 1867              	.LVL225:
 1868              	.L141:
 344:BBBOOM/Src/oled.c **** 		if(m==16){m=0;}
 1869              		.loc 1 344 3 is_stmt 1 view .LVU443
 344:BBBOOM/Src/oled.c **** 		if(m==16){m=0;}
 1870              		.loc 1 344 4 is_stmt 0 view .LVU444
 1871 00a0 0134     		adds	r4, r4, #1
 1872              	.LVL226:
 344:BBBOOM/Src/oled.c **** 		if(m==16){m=0;}
 1873              		.loc 1 344 4 view .LVU445
 1874 00a2 E4B2     		uxtb	r4, r4
 1875              	.LVL227:
 345:BBBOOM/Src/oled.c **** 		for(i=1;i<144;i++)   //实现左移
 1876              		.loc 1 345 3 is_stmt 1 view .LVU446
 345:BBBOOM/Src/oled.c **** 		for(i=1;i<144;i++)   //实现左移
 1877              		.loc 1 345 5 is_stmt 0 view .LVU447
 1878 00a4 102C     		cmp	r4, #16
 1879 00a6 DFD0     		beq	.L162
 1880              	.LVL228:
 1881              	.L145:
 346:BBBOOM/Src/oled.c **** 		{
 1882              		.loc 1 346 3 is_stmt 1 view .LVU448
 346:BBBOOM/Src/oled.c **** 		{
 1883              		.loc 1 346 8 is_stmt 0 view .LVU449
 1884 00a8 0120     		movs	r0, #1
 346:BBBOOM/Src/oled.c **** 		{
 1885              		.loc 1 346 3 view .LVU450
 1886 00aa E1E7     		b	.L146
 1887              	.L164:
 1888              		.align	2
 1889              	.L163:
 1890 00ac 00000000 		.word	OLED_GRAM
 1891              		.cfi_endproc
ARM GAS  C:\Users\Lenovo\AppData\Local\Temp\cc6BOKEM.s 			page 43


 1892              	.LFE81:
 1894              		.section	.text.OLED_ShowPicture,"ax",%progbits
 1895              		.align	1
 1896              		.global	OLED_ShowPicture
 1897              		.syntax unified
 1898              		.thumb
 1899              		.thumb_func
 1901              	OLED_ShowPicture:
 1902              	.LVL229:
 1903              	.LFB82:
 354:BBBOOM/Src/oled.c **** 	}
 355:BBBOOM/Src/oled.c **** }
 356:BBBOOM/Src/oled.c **** 
 357:BBBOOM/Src/oled.c **** //x,y：起点坐标
 358:BBBOOM/Src/oled.c **** //sizex,sizey,图片长宽
 359:BBBOOM/Src/oled.c **** //BMP[]：要写入的图片数组
 360:BBBOOM/Src/oled.c **** //mode:0,反色显示;1,正常显示
 361:BBBOOM/Src/oled.c **** void OLED_ShowPicture(u8 x,u8 y,u8 sizex,u8 sizey,u8 BMP[],u8 mode)
 362:BBBOOM/Src/oled.c **** {
 1904              		.loc 1 362 1 is_stmt 1 view -0
 1905              		.cfi_startproc
 1906              		@ args = 8, pretend = 0, frame = 16
 1907              		@ frame_needed = 0, uses_anonymous_args = 0
 1908              		.loc 1 362 1 is_stmt 0 view .LVU452
 1909 0000 2DE9F04F 		push	{r4, r5, r6, r7, r8, r9, r10, fp, lr}
 1910              	.LCFI31:
 1911              		.cfi_def_cfa_offset 36
 1912              		.cfi_offset 4, -36
 1913              		.cfi_offset 5, -32
 1914              		.cfi_offset 6, -28
 1915              		.cfi_offset 7, -24
 1916              		.cfi_offset 8, -20
 1917              		.cfi_offset 9, -16
 1918              		.cfi_offset 10, -12
 1919              		.cfi_offset 11, -8
 1920              		.cfi_offset 14, -4
 1921 0004 85B0     		sub	sp, sp, #20
 1922              	.LCFI32:
 1923              		.cfi_def_cfa_offset 56
 1924 0006 0190     		str	r0, [sp, #4]
 1925 0008 0D46     		mov	r5, r1
 1926 000a 1646     		mov	r6, r2
 1927 000c 9DF83C70 		ldrb	r7, [sp, #60]	@ zero_extendqisi2
 363:BBBOOM/Src/oled.c **** 	u16 j=0;
 1928              		.loc 1 363 2 is_stmt 1 view .LVU453
 1929              	.LVL230:
 364:BBBOOM/Src/oled.c **** 	u8 i,n,temp,m;
 1930              		.loc 1 364 2 view .LVU454
 365:BBBOOM/Src/oled.c **** 	u8 x0=x,y0=y;
 1931              		.loc 1 365 2 view .LVU455
 366:BBBOOM/Src/oled.c **** 	sizey=sizey/8+((sizey%8)?1:0);
 1932              		.loc 1 366 2 view .LVU456
 1933              		.loc 1 366 28 is_stmt 0 view .LVU457
 1934 0010 13F00702 		ands	r2, r3, #7
 1935              	.LVL231:
 1936              		.loc 1 366 28 view .LVU458
 1937 0014 18BF     		it	ne
ARM GAS  C:\Users\Lenovo\AppData\Local\Temp\cc6BOKEM.s 			page 44


 1938 0016 0122     		movne	r2, #1
 1939              		.loc 1 366 7 view .LVU459
 1940 0018 02EBD308 		add	r8, r2, r3, lsr #3
 1941              	.LVL232:
 367:BBBOOM/Src/oled.c **** 	for(n=0;n<sizey;n++)
 1942              		.loc 1 367 2 is_stmt 1 view .LVU460
 365:BBBOOM/Src/oled.c **** 	u8 x0=x,y0=y;
 1943              		.loc 1 365 10 is_stmt 0 view .LVU461
 1944 001c 0091     		str	r1, [sp]
 1945              		.loc 1 367 2 view .LVU462
 1946 001e 8346     		mov	fp, r0
 1947              		.loc 1 367 7 view .LVU463
 1948 0020 0023     		movs	r3, #0
 363:BBBOOM/Src/oled.c **** 	u8 i,n,temp,m;
 1949              		.loc 1 363 6 view .LVU464
 1950 0022 9A46     		mov	r10, r3
 1951 0024 CDF80C80 		str	r8, [sp, #12]
 1952 0028 B146     		mov	r9, r6
 1953              		.loc 1 367 2 view .LVU465
 1954 002a 3EE0     		b	.L166
 1955              	.LVL233:
 1956              	.L168:
 368:BBBOOM/Src/oled.c **** 	{
 369:BBBOOM/Src/oled.c **** 		 for(i=0;i<sizex;i++)
 370:BBBOOM/Src/oled.c **** 		 {
 371:BBBOOM/Src/oled.c **** 				temp=BMP[j];
 372:BBBOOM/Src/oled.c **** 				j++;
 373:BBBOOM/Src/oled.c **** 				for(m=0;m<8;m++)
 374:BBBOOM/Src/oled.c **** 				{
 375:BBBOOM/Src/oled.c **** 					if(temp&0x01)OLED_DrawPoint(x,y,mode);
 376:BBBOOM/Src/oled.c **** 					else OLED_DrawPoint(x,y,!mode);
 1957              		.loc 1 376 11 is_stmt 1 view .LVU466
 1958 002c B7FA87F2 		clz	r2, r7
 1959 0030 5209     		lsrs	r2, r2, #5
 1960 0032 2946     		mov	r1, r5
 1961 0034 5046     		mov	r0, r10
 1962 0036 FFF7FEFF 		bl	OLED_DrawPoint
 1963              	.LVL234:
 1964              	.L169:
 377:BBBOOM/Src/oled.c **** 					temp>>=1;
 1965              		.loc 1 377 6 discriminator 2 view .LVU467
 1966              		.loc 1 377 10 is_stmt 0 discriminator 2 view .LVU468
 1967 003a 4FEA5808 		lsr	r8, r8, #1
 1968              	.LVL235:
 378:BBBOOM/Src/oled.c **** 					y++;
 1969              		.loc 1 378 6 is_stmt 1 discriminator 2 view .LVU469
 1970              		.loc 1 378 7 is_stmt 0 discriminator 2 view .LVU470
 1971 003e 0135     		adds	r5, r5, #1
 1972              	.LVL236:
 1973              		.loc 1 378 7 discriminator 2 view .LVU471
 1974 0040 EDB2     		uxtb	r5, r5
 1975              	.LVL237:
 373:BBBOOM/Src/oled.c **** 				{
 1976              		.loc 1 373 18 is_stmt 1 discriminator 2 view .LVU472
 1977 0042 0134     		adds	r4, r4, #1
 1978              	.LVL238:
 373:BBBOOM/Src/oled.c **** 				{
ARM GAS  C:\Users\Lenovo\AppData\Local\Temp\cc6BOKEM.s 			page 45


 1979              		.loc 1 373 18 is_stmt 0 discriminator 2 view .LVU473
 1980 0044 E4B2     		uxtb	r4, r4
 1981              	.LVL239:
 1982              	.L167:
 373:BBBOOM/Src/oled.c **** 				{
 1983              		.loc 1 373 14 is_stmt 1 discriminator 1 view .LVU474
 1984 0046 072C     		cmp	r4, #7
 1985 0048 08D8     		bhi	.L176
 375:BBBOOM/Src/oled.c **** 					else OLED_DrawPoint(x,y,!mode);
 1986              		.loc 1 375 6 view .LVU475
 375:BBBOOM/Src/oled.c **** 					else OLED_DrawPoint(x,y,!mode);
 1987              		.loc 1 375 8 is_stmt 0 view .LVU476
 1988 004a 18F0010F 		tst	r8, #1
 1989 004e EDD0     		beq	.L168
 375:BBBOOM/Src/oled.c **** 					else OLED_DrawPoint(x,y,!mode);
 1990              		.loc 1 375 19 is_stmt 1 discriminator 1 view .LVU477
 1991 0050 3A46     		mov	r2, r7
 1992 0052 2946     		mov	r1, r5
 1993 0054 5046     		mov	r0, r10
 1994 0056 FFF7FEFF 		bl	OLED_DrawPoint
 1995              	.LVL240:
 1996 005a EEE7     		b	.L169
 1997              	.L176:
 379:BBBOOM/Src/oled.c **** 				}
 380:BBBOOM/Src/oled.c **** 				x++;
 1998              		.loc 1 380 5 view .LVU478
 1999              		.loc 1 380 6 is_stmt 0 view .LVU479
 2000 005c 0AF10100 		add	r0, r10, #1
 2001 0060 5FFA80FA 		uxtb	r10, r0
 2002              	.LVL241:
 381:BBBOOM/Src/oled.c **** 				if((x-x0)==sizex)
 2003              		.loc 1 381 5 is_stmt 1 view .LVU480
 2004              		.loc 1 381 10 is_stmt 0 view .LVU481
 2005 0064 019B     		ldr	r3, [sp, #4]
 2006 0066 AAEB0304 		sub	r4, r10, r3
 2007              	.LVL242:
 2008              		.loc 1 381 7 view .LVU482
 2009 006a B442     		cmp	r4, r6
 2010 006c 0FD0     		beq	.L177
 2011              	.LVL243:
 2012              	.L171:
 382:BBBOOM/Src/oled.c **** 				{
 383:BBBOOM/Src/oled.c **** 					x=x0;
 384:BBBOOM/Src/oled.c **** 					y0=y0+8;
 385:BBBOOM/Src/oled.c **** 				}
 386:BBBOOM/Src/oled.c **** 				y=y0;
 2013              		.loc 1 386 5 is_stmt 1 discriminator 2 view .LVU483
 369:BBBOOM/Src/oled.c **** 		 {
 2014              		.loc 1 369 21 discriminator 2 view .LVU484
 2015 006e 09F10103 		add	r3, r9, #1
 2016 0072 5FFA83F9 		uxtb	r9, r3
 2017              	.LVL244:
 2018              		.loc 1 386 6 is_stmt 0 discriminator 2 view .LVU485
 2019 0076 009D     		ldr	r5, [sp]
 2020              	.LVL245:
 2021              	.L173:
 369:BBBOOM/Src/oled.c **** 		 {
ARM GAS  C:\Users\Lenovo\AppData\Local\Temp\cc6BOKEM.s 			page 46


 2022              		.loc 1 369 13 is_stmt 1 discriminator 1 view .LVU486
 2023 0078 B145     		cmp	r9, r6
 2024 007a 0FD2     		bcs	.L178
 371:BBBOOM/Src/oled.c **** 				j++;
 2025              		.loc 1 371 5 view .LVU487
 371:BBBOOM/Src/oled.c **** 				j++;
 2026              		.loc 1 371 9 is_stmt 0 view .LVU488
 2027 007c 0E9B     		ldr	r3, [sp, #56]
 2028 007e 13F80B80 		ldrb	r8, [r3, fp]	@ zero_extendqisi2
 2029              	.LVL246:
 372:BBBOOM/Src/oled.c **** 				for(m=0;m<8;m++)
 2030              		.loc 1 372 5 is_stmt 1 view .LVU489
 372:BBBOOM/Src/oled.c **** 				for(m=0;m<8;m++)
 2031              		.loc 1 372 6 is_stmt 0 view .LVU490
 2032 0082 0BF10102 		add	r2, fp, #1
 2033 0086 1FFA82FB 		uxth	fp, r2
 2034              	.LVL247:
 373:BBBOOM/Src/oled.c **** 				{
 2035              		.loc 1 373 5 is_stmt 1 view .LVU491
 373:BBBOOM/Src/oled.c **** 				{
 2036              		.loc 1 373 10 is_stmt 0 view .LVU492
 2037 008a 0024     		movs	r4, #0
 373:BBBOOM/Src/oled.c **** 				{
 2038              		.loc 1 373 5 view .LVU493
 2039 008c DBE7     		b	.L167
 2040              	.LVL248:
 2041              	.L177:
 383:BBBOOM/Src/oled.c **** 					y0=y0+8;
 2042              		.loc 1 383 6 is_stmt 1 view .LVU494
 384:BBBOOM/Src/oled.c **** 				}
 2043              		.loc 1 384 6 view .LVU495
 384:BBBOOM/Src/oled.c **** 				}
 2044              		.loc 1 384 8 is_stmt 0 view .LVU496
 2045 008e 0098     		ldr	r0, [sp]
 2046 0090 0830     		adds	r0, r0, #8
 2047 0092 C3B2     		uxtb	r3, r0
 2048 0094 0093     		str	r3, [sp]
 2049              	.LVL249:
 383:BBBOOM/Src/oled.c **** 					y0=y0+8;
 2050              		.loc 1 383 7 view .LVU497
 2051 0096 DDF804A0 		ldr	r10, [sp, #4]
 2052 009a E8E7     		b	.L171
 2053              	.LVL250:
 2054              	.L178:
 367:BBBOOM/Src/oled.c **** 	{
 2055              		.loc 1 367 19 discriminator 2 view .LVU498
 2056 009c 5A46     		mov	r2, fp
 2057 009e D346     		mov	fp, r10
 2058              	.LVL251:
 367:BBBOOM/Src/oled.c **** 	{
 2059              		.loc 1 367 19 discriminator 2 view .LVU499
 2060 00a0 029B     		ldr	r3, [sp, #8]
 2061 00a2 B146     		mov	r9, r6
 2062              	.LVL252:
 367:BBBOOM/Src/oled.c **** 	{
 2063              		.loc 1 367 19 discriminator 2 view .LVU500
 2064 00a4 9246     		mov	r10, r2
ARM GAS  C:\Users\Lenovo\AppData\Local\Temp\cc6BOKEM.s 			page 47


 2065              	.LVL253:
 367:BBBOOM/Src/oled.c **** 	{
 2066              		.loc 1 367 19 is_stmt 1 discriminator 2 view .LVU501
 2067 00a6 0133     		adds	r3, r3, #1
 2068 00a8 DBB2     		uxtb	r3, r3
 2069              	.LVL254:
 2070              	.L166:
 367:BBBOOM/Src/oled.c **** 	{
 2071              		.loc 1 367 11 discriminator 1 view .LVU502
 2072 00aa 039A     		ldr	r2, [sp, #12]
 2073 00ac 9342     		cmp	r3, r2
 2074 00ae 08D2     		bcs	.L179
 369:BBBOOM/Src/oled.c **** 		 {
 2075              		.loc 1 369 9 is_stmt 0 view .LVU503
 2076 00b0 4FF00008 		mov	r8, #0
 2077 00b4 5246     		mov	r2, r10
 2078 00b6 DA46     		mov	r10, fp
 2079              	.LVL255:
 369:BBBOOM/Src/oled.c **** 		 {
 2080              		.loc 1 369 9 view .LVU504
 2081 00b8 0293     		str	r3, [sp, #8]
 2082 00ba 4E46     		mov	r6, r9
 2083 00bc C146     		mov	r9, r8
 2084 00be 9346     		mov	fp, r2
 2085              	.LVL256:
 369:BBBOOM/Src/oled.c **** 		 {
 2086              		.loc 1 369 9 view .LVU505
 2087 00c0 DAE7     		b	.L173
 2088              	.LVL257:
 2089              	.L179:
 387:BBBOOM/Src/oled.c ****      }
 388:BBBOOM/Src/oled.c **** 	 }
 389:BBBOOM/Src/oled.c **** }
 2090              		.loc 1 389 1 view .LVU506
 2091 00c2 05B0     		add	sp, sp, #20
 2092              	.LCFI33:
 2093              		.cfi_def_cfa_offset 36
 2094              	.LVL258:
 2095              		.loc 1 389 1 view .LVU507
 2096              		@ sp needed
 2097 00c4 BDE8F08F 		pop	{r4, r5, r6, r7, r8, r9, r10, fp, pc}
 2098              		.loc 1 389 1 view .LVU508
 2099              		.cfi_endproc
 2100              	.LFE82:
 2102              		.section	.text.OLED_Init,"ax",%progbits
 2103              		.align	1
 2104              		.global	OLED_Init
 2105              		.syntax unified
 2106              		.thumb
 2107              		.thumb_func
 2109              	OLED_Init:
 2110              	.LFB83:
 390:BBBOOM/Src/oled.c **** 
 391:BBBOOM/Src/oled.c **** 
 392:BBBOOM/Src/oled.c **** 
 393:BBBOOM/Src/oled.c **** //OLED的初始化
 394:BBBOOM/Src/oled.c **** void OLED_Init(void)
ARM GAS  C:\Users\Lenovo\AppData\Local\Temp\cc6BOKEM.s 			page 48


 395:BBBOOM/Src/oled.c **** {	
 2111              		.loc 1 395 1 is_stmt 1 view -0
 2112              		.cfi_startproc
 2113              		@ args = 0, pretend = 0, frame = 0
 2114              		@ frame_needed = 0, uses_anonymous_args = 0
 2115 0000 08B5     		push	{r3, lr}
 2116              	.LCFI34:
 2117              		.cfi_def_cfa_offset 8
 2118              		.cfi_offset 3, -8
 2119              		.cfi_offset 14, -4
 396:BBBOOM/Src/oled.c **** 	OLED_WR_Byte(0xAE,OLED_CMD);//--turn off oled panel
 2120              		.loc 1 396 2 view .LVU510
 2121 0002 0021     		movs	r1, #0
 2122 0004 AE20     		movs	r0, #174
 2123 0006 FFF7FEFF 		bl	OLED_WR_Byte
 2124              	.LVL259:
 397:BBBOOM/Src/oled.c **** 	OLED_WR_Byte(0x00,OLED_CMD);//---set low column address
 2125              		.loc 1 397 2 view .LVU511
 2126 000a 0021     		movs	r1, #0
 2127 000c 0846     		mov	r0, r1
 2128 000e FFF7FEFF 		bl	OLED_WR_Byte
 2129              	.LVL260:
 398:BBBOOM/Src/oled.c **** 	OLED_WR_Byte(0x10,OLED_CMD);//---set high column address
 2130              		.loc 1 398 2 view .LVU512
 2131 0012 0021     		movs	r1, #0
 2132 0014 1020     		movs	r0, #16
 2133 0016 FFF7FEFF 		bl	OLED_WR_Byte
 2134              	.LVL261:
 399:BBBOOM/Src/oled.c **** 	OLED_WR_Byte(0x40,OLED_CMD);//--set start line address  Set Mapping RAM Display Start Line (0x00~0
 2135              		.loc 1 399 2 view .LVU513
 2136 001a 0021     		movs	r1, #0
 2137 001c 4020     		movs	r0, #64
 2138 001e FFF7FEFF 		bl	OLED_WR_Byte
 2139              	.LVL262:
 400:BBBOOM/Src/oled.c **** 	OLED_WR_Byte(0x81,OLED_CMD);//--set contrast control register
 2140              		.loc 1 400 2 view .LVU514
 2141 0022 0021     		movs	r1, #0
 2142 0024 8120     		movs	r0, #129
 2143 0026 FFF7FEFF 		bl	OLED_WR_Byte
 2144              	.LVL263:
 401:BBBOOM/Src/oled.c **** 	OLED_WR_Byte(0xCF,OLED_CMD);// Set SEG Output Current Brightness
 2145              		.loc 1 401 2 view .LVU515
 2146 002a 0021     		movs	r1, #0
 2147 002c CF20     		movs	r0, #207
 2148 002e FFF7FEFF 		bl	OLED_WR_Byte
 2149              	.LVL264:
 402:BBBOOM/Src/oled.c **** 	OLED_WR_Byte(0xA1,OLED_CMD);//--Set SEG/Column Mapping     0xa0左右反置 0xa1正常
 2150              		.loc 1 402 2 view .LVU516
 2151 0032 0021     		movs	r1, #0
 2152 0034 A120     		movs	r0, #161
 2153 0036 FFF7FEFF 		bl	OLED_WR_Byte
 2154              	.LVL265:
 403:BBBOOM/Src/oled.c **** 	OLED_WR_Byte(0xC8,OLED_CMD);//Set COM/Row Scan Direction   0xc0上下反置 0xc8正常
 2155              		.loc 1 403 2 view .LVU517
 2156 003a 0021     		movs	r1, #0
 2157 003c C820     		movs	r0, #200
 2158 003e FFF7FEFF 		bl	OLED_WR_Byte
ARM GAS  C:\Users\Lenovo\AppData\Local\Temp\cc6BOKEM.s 			page 49


 2159              	.LVL266:
 404:BBBOOM/Src/oled.c **** 	OLED_WR_Byte(0xA6,OLED_CMD);//--set normal display
 2160              		.loc 1 404 2 view .LVU518
 2161 0042 0021     		movs	r1, #0
 2162 0044 A620     		movs	r0, #166
 2163 0046 FFF7FEFF 		bl	OLED_WR_Byte
 2164              	.LVL267:
 405:BBBOOM/Src/oled.c **** 	OLED_WR_Byte(0xA8,OLED_CMD);//--set multiplex ratio(1 to 64)
 2165              		.loc 1 405 2 view .LVU519
 2166 004a 0021     		movs	r1, #0
 2167 004c A820     		movs	r0, #168
 2168 004e FFF7FEFF 		bl	OLED_WR_Byte
 2169              	.LVL268:
 406:BBBOOM/Src/oled.c **** 	OLED_WR_Byte(0x3f,OLED_CMD);//--1/64 duty
 2170              		.loc 1 406 2 view .LVU520
 2171 0052 0021     		movs	r1, #0
 2172 0054 3F20     		movs	r0, #63
 2173 0056 FFF7FEFF 		bl	OLED_WR_Byte
 2174              	.LVL269:
 407:BBBOOM/Src/oled.c **** 	OLED_WR_Byte(0xD3,OLED_CMD);//-set display offset	Shift Mapping RAM Counter (0x00~0x3F)
 2175              		.loc 1 407 2 view .LVU521
 2176 005a 0021     		movs	r1, #0
 2177 005c D320     		movs	r0, #211
 2178 005e FFF7FEFF 		bl	OLED_WR_Byte
 2179              	.LVL270:
 408:BBBOOM/Src/oled.c **** 	OLED_WR_Byte(0x00,OLED_CMD);//-not offset
 2180              		.loc 1 408 2 view .LVU522
 2181 0062 0021     		movs	r1, #0
 2182 0064 0846     		mov	r0, r1
 2183 0066 FFF7FEFF 		bl	OLED_WR_Byte
 2184              	.LVL271:
 409:BBBOOM/Src/oled.c **** 	OLED_WR_Byte(0xd5,OLED_CMD);//--set display clock divide ratio/oscillator frequency
 2185              		.loc 1 409 2 view .LVU523
 2186 006a 0021     		movs	r1, #0
 2187 006c D520     		movs	r0, #213
 2188 006e FFF7FEFF 		bl	OLED_WR_Byte
 2189              	.LVL272:
 410:BBBOOM/Src/oled.c **** 	OLED_WR_Byte(0x80,OLED_CMD);//--set divide ratio, Set Clock as 100 Frames/Sec
 2190              		.loc 1 410 2 view .LVU524
 2191 0072 0021     		movs	r1, #0
 2192 0074 8020     		movs	r0, #128
 2193 0076 FFF7FEFF 		bl	OLED_WR_Byte
 2194              	.LVL273:
 411:BBBOOM/Src/oled.c **** 	OLED_WR_Byte(0xD9,OLED_CMD);//--set pre-charge period
 2195              		.loc 1 411 2 view .LVU525
 2196 007a 0021     		movs	r1, #0
 2197 007c D920     		movs	r0, #217
 2198 007e FFF7FEFF 		bl	OLED_WR_Byte
 2199              	.LVL274:
 412:BBBOOM/Src/oled.c **** 	OLED_WR_Byte(0xF1,OLED_CMD);//Set Pre-Charge as 15 Clocks & Discharge as 1 Clock
 2200              		.loc 1 412 2 view .LVU526
 2201 0082 0021     		movs	r1, #0
 2202 0084 F120     		movs	r0, #241
 2203 0086 FFF7FEFF 		bl	OLED_WR_Byte
 2204              	.LVL275:
 413:BBBOOM/Src/oled.c **** 	OLED_WR_Byte(0xDA,OLED_CMD);//--set com pins hardware configuration
 2205              		.loc 1 413 2 view .LVU527
ARM GAS  C:\Users\Lenovo\AppData\Local\Temp\cc6BOKEM.s 			page 50


 2206 008a 0021     		movs	r1, #0
 2207 008c DA20     		movs	r0, #218
 2208 008e FFF7FEFF 		bl	OLED_WR_Byte
 2209              	.LVL276:
 414:BBBOOM/Src/oled.c **** 	OLED_WR_Byte(0x12,OLED_CMD);
 2210              		.loc 1 414 2 view .LVU528
 2211 0092 0021     		movs	r1, #0
 2212 0094 1220     		movs	r0, #18
 2213 0096 FFF7FEFF 		bl	OLED_WR_Byte
 2214              	.LVL277:
 415:BBBOOM/Src/oled.c **** 	OLED_WR_Byte(0xDB,OLED_CMD);//--set vcomh
 2215              		.loc 1 415 2 view .LVU529
 2216 009a 0021     		movs	r1, #0
 2217 009c DB20     		movs	r0, #219
 2218 009e FFF7FEFF 		bl	OLED_WR_Byte
 2219              	.LVL278:
 416:BBBOOM/Src/oled.c **** 	OLED_WR_Byte(0x40,OLED_CMD);//Set VCOM Deselect Level
 2220              		.loc 1 416 2 view .LVU530
 2221 00a2 0021     		movs	r1, #0
 2222 00a4 4020     		movs	r0, #64
 2223 00a6 FFF7FEFF 		bl	OLED_WR_Byte
 2224              	.LVL279:
 417:BBBOOM/Src/oled.c **** 	OLED_WR_Byte(0x20,OLED_CMD);//-Set Page Addressing Mode (0x00/0x01/0x02)
 2225              		.loc 1 417 2 view .LVU531
 2226 00aa 0021     		movs	r1, #0
 2227 00ac 2020     		movs	r0, #32
 2228 00ae FFF7FEFF 		bl	OLED_WR_Byte
 2229              	.LVL280:
 418:BBBOOM/Src/oled.c **** 	OLED_WR_Byte(0x02,OLED_CMD);//
 2230              		.loc 1 418 2 view .LVU532
 2231 00b2 0021     		movs	r1, #0
 2232 00b4 0220     		movs	r0, #2
 2233 00b6 FFF7FEFF 		bl	OLED_WR_Byte
 2234              	.LVL281:
 419:BBBOOM/Src/oled.c **** 	OLED_WR_Byte(0x8D,OLED_CMD);//--set Charge Pump enable/disable
 2235              		.loc 1 419 2 view .LVU533
 2236 00ba 0021     		movs	r1, #0
 2237 00bc 8D20     		movs	r0, #141
 2238 00be FFF7FEFF 		bl	OLED_WR_Byte
 2239              	.LVL282:
 420:BBBOOM/Src/oled.c **** 	OLED_WR_Byte(0x14,OLED_CMD);//--set(0x10) disable
 2240              		.loc 1 420 2 view .LVU534
 2241 00c2 0021     		movs	r1, #0
 2242 00c4 1420     		movs	r0, #20
 2243 00c6 FFF7FEFF 		bl	OLED_WR_Byte
 2244              	.LVL283:
 421:BBBOOM/Src/oled.c **** 	OLED_WR_Byte(0xA4,OLED_CMD);// Disable Entire Display On (0xa4/0xa5)
 2245              		.loc 1 421 2 view .LVU535
 2246 00ca 0021     		movs	r1, #0
 2247 00cc A420     		movs	r0, #164
 2248 00ce FFF7FEFF 		bl	OLED_WR_Byte
 2249              	.LVL284:
 422:BBBOOM/Src/oled.c **** 	OLED_WR_Byte(0xA6,OLED_CMD);// Disable Inverse Display On (0xa6/a7) 
 2250              		.loc 1 422 2 view .LVU536
 2251 00d2 0021     		movs	r1, #0
 2252 00d4 A620     		movs	r0, #166
 2253 00d6 FFF7FEFF 		bl	OLED_WR_Byte
ARM GAS  C:\Users\Lenovo\AppData\Local\Temp\cc6BOKEM.s 			page 51


 2254              	.LVL285:
 423:BBBOOM/Src/oled.c **** 	OLED_Clear();
 2255              		.loc 1 423 2 view .LVU537
 2256 00da FFF7FEFF 		bl	OLED_Clear
 2257              	.LVL286:
 424:BBBOOM/Src/oled.c **** 	OLED_WR_Byte(0xAF,OLED_CMD);
 2258              		.loc 1 424 2 view .LVU538
 2259 00de 0021     		movs	r1, #0
 2260 00e0 AF20     		movs	r0, #175
 2261 00e2 FFF7FEFF 		bl	OLED_WR_Byte
 2262              	.LVL287:
 425:BBBOOM/Src/oled.c **** }
 2263              		.loc 1 425 1 is_stmt 0 view .LVU539
 2264 00e6 08BD     		pop	{r3, pc}
 2265              		.cfi_endproc
 2266              	.LFE83:
 2268              		.global	OLED_GRAM
 2269              		.section	.bss.OLED_GRAM,"aw",%nobits
 2270              		.align	2
 2273              	OLED_GRAM:
 2274 0000 00000000 		.space	1152
 2274      00000000 
 2274      00000000 
 2274      00000000 
 2274      00000000 
 2275              		.section	.rodata.Hzk4,"a"
 2276              		.align	2
 2279              	Hzk4:
 2280 0000 00000000 		.ascii	"\000\000\000\000\000\000\000\000\000\000\000\000\000"
 2280      00000000 
 2280      00000000 
 2280      00
 2281 000d 00000000 		.ascii	"\000\000\000\000\000\000\000\000\000\000\000\000\000"
 2281      00000000 
 2281      00000000 
 2281      00
 2282 001a 000000F8 		.ascii	"\000\000\000\370\370\360\360p \000\000\000\000\000\000"
 2282      F8F0F070 
 2282      20000000 
 2282      000000
 2283 0029 00000000 		.ascii	"\000\000\000\000\000\000\000\000\000\000\000\000\000"
 2283      00000000 
 2283      00000000 
 2283      00
 2284 0036 00000000 		.ascii	"\000\000\000\000\000\000\000\000\000\000\000\000\000"
 2284      00000000 
 2284      00000000 
 2284      00
 2285 0043 00000000 		.ascii	"\000\000\000\000\000\200\000\000\000\000\000\000\000"
 2285      00800000 
 2285      00000000 
 2285      00
 2286 0050 00000000 		.ascii	"\000\000\000\000\000\000\000\000\000\000\000\000\000"
 2286      00000000 
 2286      00000000 
 2286      00
 2287 005d FFFFFFFF 		.ascii	"\377\377\377\377\000\000\000\000\000\000\000\000\000"
ARM GAS  C:\Users\Lenovo\AppData\Local\Temp\cc6BOKEM.s 			page 52


 2287      00000000 
 2287      00000000 
 2287      00
 2288 006a 00000000 		.ascii	"\000\000\000\000\000\000\000\000\000\000\200\200\000"
 2288      00000000 
 2288      00008080 
 2288      00
 2289 0077 00000000 		.ascii	"\000\000\000\000\000\000\000\000\000\000\000\000\000"
 2289      00000000 
 2289      00000000 
 2289      00
 2290 0084 00000000 		.ascii	"\000\000\000\000\000\377\377\376\006\006\006\006\006"
 2290      00FFFFFE 
 2290      06060606 
 2290      06
 2291 0091 06060606 		.ascii	"\006\006\006\006\006\006\006\006\006\006\006\006\377"
 2291      06060606 
 2291      06060606 
 2291      FF
 2292 009e FFFFFF06 		.ascii	"\377\377\377\006\006\006\006\006\006\006\006\006\006"
 2292      06060606 
 2292      06060606 
 2292      06
 2293 00ab 06060606 		.ascii	"\006\006\006\006\006\006\006\006\377\377\377\377\007"
 2293      06060606 
 2293      FFFFFFFF 
 2293      07
 2294 00b8 02000000 		.ascii	"\002\000\000\000\000\000\000\000\000\000\000\000\000"
 2294      00000000 
 2294      00000000 
 2294      00
 2295 00c5 00000000 		.ascii	"\000\000\000\000\377\377\377\000\000\000\000\000\000"
 2295      FFFFFF00 
 2295      00000000 
 2295      00
 2296 00d2 00000000 		.ascii	"\000\000\000\000\000\000\000\000\000\000\000\377\377"
 2296      00000000 
 2296      000000FF 
 2296      FF
 2297 00df FFFF0000 		.ascii	"\377\377\000\000\000\000\000\000\000\000\000\000\000"
 2297      00000000 
 2297      00000000 
 2297      00
 2298 00ec 00000000 		.ascii	"\000\000\000\000\000\000\000\377\377\377\377\000\000"
 2298      000000FF 
 2298      FFFFFF00 
 2298      00
 2299 00f9 00000000 		.ascii	"\000\000\000\000\000\000\000\000\000\000\000\000\000"
 2299      00000000 
 2299      00000000 
 2299      00
 2300 0106 000000FF 		.ascii	"\000\000\000\377\377\377\030\030\030\030\030\030\030"
 2300      FFFF1818 
 2300      18181818 
 2300      18
 2301 0113 18181818 		.ascii	"\030\030\030\030\030\030\030\030\030\030\377\377\377"
 2301      18181818 
ARM GAS  C:\Users\Lenovo\AppData\Local\Temp\cc6BOKEM.s 			page 53


 2301      1818FFFF 
 2301      FF
 2302 0120 FF181818 		.ascii	"\377\030\030\030\030\030\030\030\030\030\030\030\030"
 2302      18181818 
 2302      18181818 
 2302      18
 2303 012d 18181818 		.ascii	"\030\030\030\030\030\030\377\377\377\377\000\000\000"
 2303      1818FFFF 
 2303      FFFF0000 
 2303      00
 2304 013a 00000000 		.ascii	"\000\000\000\000\000\000\000\000\000\000\000\000\000"
 2304      00000000 
 2304      00000000 
 2304      00
 2305 0147 00020101 		.ascii	"\000\002\001\001\000\000\000\000\000\000\000\000\000"
 2305      00000000 
 2305      00000000 
 2305      00
 2306 0154 00000000 		.ascii	"\000\000\000\000\000\000\000\000\000\377\377\377\377"
 2306      00000000 
 2306      00FFFFFF 
 2306      FF
 2307 0161 00000000 		.ascii	"\000\000\000\000\000\000\000\000\000\000\000\000\000"
 2307      00000000 
 2307      00000000 
 2307      00
 2308 016e 00000000 		.ascii	"\000\000\000\000\000\001\001\000\000\000\000\000\000"
 2308      00010100 
 2308      00000000 
 2308      00
 2309 017b 00000000 		.ascii	"\000\000\000\000\000\000\000\000\000\000\000\000\000"
 2309      00000000 
 2309      00000000 
 2309      00
 2310 0188 00000000 		.ascii	"\000\000\000\000\000\000\000\000\000\000\000\000\000"
 2310      00000000 
 2310      00000000 
 2310      00
 2311 0195 00000000 		.ascii	"\000\000\000\000\000\000\000\000\377\377\377\377\000"
 2311      00000000 
 2311      FFFFFFFF 
 2311      00
 2312 01a2 00000000 		.ascii	"\000\000\000\000\000\000\000\000\000\000\000\000\000"
 2312      00000000 
 2312      00000000 
 2312      00
 2313 01af 00000000 		.ascii	"\000\000\000\000\000\000\000\000\000\000\000\000\000"
 2313      00000000 
 2313      00000000 
 2313      00
 2314 01bc 00000000 		.ascii	"\000\000\000\000\000\000\000\000\000\000\000\000\000"
 2314      00000000 
 2314      00000000 
 2314      00
 2315 01c9 00000000 		.ascii	"\000\000\000\000\000\000\000\000\000\000\000\000\000"
 2315      00000000 
 2315      00000000 
ARM GAS  C:\Users\Lenovo\AppData\Local\Temp\cc6BOKEM.s 			page 54


 2315      00
 2316 01d6 00000000 		.ascii	"\000\000\000\000\000\000\000\037\037\017\017\000\000"
 2316      0000001F 
 2316      1F0F0F00 
 2316      00
 2317 01e3 00000000 		.ascii	"\000\000\000\000\000\000\000\000\000\000\000\000\000"
 2317      00000000 
 2317      00000000 
 2317      00
 2318 01f0 00000000 		.ascii	"\000\000\000\000\000\000\000\000\000\000\000\000\000"
 2318      00000000 
 2318      00000000 
 2318      00
 2319 01fd 000000   		.ascii	"\000\000\000"
 2320              		.section	.rodata.Hzk3,"a"
 2321              		.align	2
 2324              	Hzk3:
 2325 0000 00000000 		.ascii	"\000\000\000\000\000\000\000\000\000\000\000\000\000"
 2325      00000000 
 2325      00000000 
 2325      00
 2326 000d 0000FCF8 		.ascii	"\000\000\374\370\000\000\000\000\000\000\000\000\000"
 2326      00000000 
 2326      00000000 
 2326      00
 2327 001a 00000000 		.ascii	"\000\000\000\000\000\000\000\000\000\000\377\376\002"
 2327      00000000 
 2327      0000FFFE 
 2327      02
 2328 0027 02020202 		.ascii	"\002\002\002\002\002\002\002\002\377\377\002\002\002"
 2328      02020202 
 2328      FFFF0202 
 2328      02
 2329 0034 02020202 		.ascii	"\002\002\002\002\002\002\377\003\000\000\000\000\000"
 2329      0202FF03 
 2329      00000000 
 2329      00
 2330 0041 0000001F 		.ascii	"\000\000\000\037\037\004\004\004\004\004\004\004\004"
 2330      1F040404 
 2330      04040404 
 2330      04
 2331 004e 04FFFF04 		.ascii	"\004\377\377\004\004\004\004\004\004\004\004\004\037"
 2331      04040404 
 2331      04040404 
 2331      1F
 2332 005b 00000000 		.ascii	"\000\000\000\000\000\000\000\000\000\000\000\000\000"
 2332      00000000 
 2332      00000000 
 2332      00
 2333 0068 00000000 		.ascii	"\000\000\000\000\000\000\000\177?\000\000\000\000\000"
 2333      0000007F 
 2333      3F000000 
 2333      0000
 2334 0076 00000000 		.ascii	"\000\000\000\000\000\000\000\000\000\000"
 2334      00000000 
 2334      0000
 2335              		.section	.rodata.Hzk2,"a"
ARM GAS  C:\Users\Lenovo\AppData\Local\Temp\cc6BOKEM.s 			page 55


 2336              		.align	2
 2339              	Hzk2:
 2340 0000 000000C0 		.ascii	"\000\000\000\300\200\200\200\200\200\200\200\374\204"
 2340      80808080 
 2340      808080FC 
 2340      84
 2341 000d 80808080 		.ascii	"\200\200\200\200\200\200\300\300\000\000\000\000\000"
 2341      8080C0C0 
 2341      00000000 
 2341      00
 2342 001a 00FF7F40 		.ascii	"\000\377\177@@@@@@\377@@@@@@@\377\177\000\000\000\000"
 2342      40404040 
 2342      40FF4040 
 2342      40404040 
 2342      40FF7F00 
 2343 0031 00000000 		.ascii	"\000\000\000\000\000\000\000\000\000\000\177p\000\000"
 2343      00000000 
 2343      00007F70 
 2343      0000
 2344 003f 00000000 		.ascii	"\000\000\000\000\000\000\000\000\000"
 2344      00000000 
 2344      00
 2345              		.section	.rodata.Hzk1,"a"
 2346              		.align	2
 2349              	Hzk1:
 2350 0000 0000F010 		.ascii	"\000\000\360\020\020\020\020\377\020\020\020\020\360"
 2350      101010FF 
 2350      10101010 
 2350      F0
 2351 000d 00000000 		.ascii	"\000\000\000\000\000\017\004\004\004\004\377\004\004"
 2351      000F0404 
 2351      0404FF04 
 2351      04
 2352 001a 04040F00 		.ascii	"\004\004\017\000\000\000"
 2352      0000
 2353 0020 4040405F 		.ascii	"@@@_UUUuUUU_@@@\000\000@ \017\011I\211y\011\011\011"
 2353      55555575 
 2353      5555555F 
 2353      40404000 
 2353      0040200F 
 2354 003b 0F204000 		.ascii	"\017 @\000\000"
 2354      00
 2355 0040 00FE0242 		.ascii	"\000\376\002BJ\312JJ\312JJB\002\376\000\000\000\377"
 2355      4ACA4A4A 
 2355      CA4A4A42 
 2355      02FE0000 
 2355      00FF
 2356 0052 40504C43 		.ascii	"@PLC@@OPP\\@\377\000\000"
 2356      40404F50 
 2356      505C40FF 
 2356      0000
 2357 0060 0000F888 		.ascii	"\000\000\370\210\210\210\210\377\210\210\210\210\370"
 2357      888888FF 
 2357      88888888 
 2357      F8
 2358 006d 00000000 		.ascii	"\000\000\000\000\000\037\010\010\010\010\177\210\210"
 2358      001F0808 
ARM GAS  C:\Users\Lenovo\AppData\Local\Temp\cc6BOKEM.s 			page 56


 2358      08087F88 
 2358      88
 2359 007a 88889F80 		.ascii	"\210\210\237\200\360\000"
 2359      F000
 2360 0080 80828282 		.ascii	"\200\202\202\202\202\202\202\342\242\222\212\206\202"
 2360      828282E2 
 2360      A2928A86 
 2360      82
 2361 008d 80800000 		.ascii	"\200\200\000\000\000\000\000\000@\200\177\000\000\000"
 2361      00000000 
 2361      40807F00 
 2361      0000
 2362 009b 00000000 		.ascii	"\000\000\000\000\000"
 2362      00
 2363 00a0 101010FF 		.ascii	"\020\020\020\377\020\220\010\210\210\210\377\210\210"
 2363      10900888 
 2363      8888FF88 
 2363      88
 2364 00ad 88080004 		.ascii	"\210\010\000\004D\202\177\001\200\200@C,\020(F\201\200"
 2364      44827F01 
 2364      80804043 
 2364      2C102846 
 2364      8180
 2365 00bf 00       		.ascii	"\000"
 2366 00c0 00101010 		.ascii	"\000\020\020\020\020\3200\3770\320\022\034\020\020\000"
 2366      10D030FF 
 2366      30D0121C 
 2366      101000
 2367 00cf 00100804 		.ascii	"\000\020\010\004\002\001\000\000\377\000\000\001\002"
 2367      02010000 
 2367      FF000001 
 2367      02
 2368 00dc 04081000 		.ascii	"\004\010\020\000"
 2369 00e0 04040484 		.ascii	"\004\004\004\204\344<'$$$$\344\004\004\004\000\004\002"
 2369      E43C2724 
 2369      242424E4 
 2369      04040400 
 2369      0402
 2370 00f2 0100FF09 		.ascii	"\001\000\377\011\011\011\011I\211\177\000\000\000\000"
 2370      09090949 
 2370      897F0000 
 2370      0000
 2371 0100 00FE225A 		.ascii	"\000\376\"Z\206\000\376\222\222\222\222\222\376\000"
 2371      8600FE92 
 2371      92929292 
 2371      FE00
 2372 010e 000000FF 		.ascii	"\000\000\000\377\004\010\007\000\377@ \003\014\024\""
 2372      04080700 
 2372      FF402003 
 2372      0C1422
 2373 011d 414000   		.ascii	"A@\000"
 2374 0120 00804020 		.ascii	"\000\200@ \030\006\200\000\007\030 @\200\000\000\000"
 2374      18068000 
 2374      07182040 
 2374      80000000 
 2375 0130 01002070 		.ascii	"\001\000 p(&!  $8`\000\001\001\000"
 2375      28262120 
ARM GAS  C:\Users\Lenovo\AppData\Local\Temp\cc6BOKEM.s 			page 57


 2375      20243860 
 2375      00010100 
 2376 0140 00101292 		.ascii	"\000\020\022\222\222\222\222\222\222\022\022\002\376"
 2376      92929292 
 2376      92121202 
 2376      FE
 2377 014d 00000000 		.ascii	"\000\000\000\000\000\000?\020\020\020\020?\000@\200"
 2377      00003F10 
 2377      1010103F 
 2377      004080
 2378 015c 7F000000 		.ascii	"\177\000\000\000"
 2379              		.section	.rodata.asc2_2412,"a"
 2380              		.align	2
 2383              	asc2_2412:
 2384 0000 00000000 		.ascii	"\000\000\000\000\000\000\000\000\000\000\000\000\000"
 2384      00000000 
 2384      00000000 
 2384      00
 2385 000d 00000000 		.ascii	"\000\000\000\000\000\000\000\000\000\000\000\000\000"
 2385      00000000 
 2385      00000000 
 2385      00
 2386 001a 00000000 		.ascii	"\000\000\000\000\000\000\000\000\000\000"
 2386      00000000 
 2386      0000
 2387 0024 00000000 		.ascii	"\000\000\000\000\000\360\360\360\000\000\000\000\000"
 2387      00F0F0F0 
 2387      00000000 
 2387      00
 2388 0031 00000000 		.ascii	"\000\000\000\000\001\177\001\000\000\000\000\000\000"
 2388      017F0100 
 2388      00000000 
 2388      00
 2389 003e 0000001C 		.ascii	"\000\000\000\034\034\034\000\000\000\000"
 2389      1C1C0000 
 2389      0000
 2390 0048 00008060 		.ascii	"\000\000\200`0\034\214`0\034\014\000\000\000\000\000"
 2390      301C8C60 
 2390      301C0C00 
 2390      00000000 
 2391 0058 00000000 		.ascii	"\000\000\000\000\000\000\000\000\000\000\000\000\000"
 2391      00000000 
 2391      00000000 
 2391      00
 2392 0065 00000000 		.ascii	"\000\000\000\000\000\000\000"
 2392      000000
 2393 006c 000000E0 		.ascii	"\000\000\000\340\000\000\000\000\000\340\000\000\000"
 2393      00000000 
 2393      00E00000 
 2393      00
 2394 0079 86E69F86 		.ascii	"\206\346\237\206\206\206\206\346\237\206\000\000\001"
 2394      868686E6 
 2394      9F860000 
 2394      01
 2395 0086 1F010101 		.ascii	"\037\001\001\001\001\001\037\001\001\000"
 2395      01011F01 
 2395      0100
ARM GAS  C:\Users\Lenovo\AppData\Local\Temp\cc6BOKEM.s 			page 58


 2396 0090 000080C0 		.ascii	"\000\000\200\300` \370 \340\300\000\000\000\000\003"
 2396      6020F820 
 2396      E0C00000 
 2396      000003
 2397 009f 070C18FF 		.ascii	"\007\014\030\377p\341\201\000\000\000\000\007\017\020"
 2397      70E18100 
 2397      00000007 
 2397      0F10
 2398 00ad 107F100F 		.ascii	"\020\177\020\017\007\000\000"
 2398      070000
 2399 00b4 80602060 		.ascii	"\200` `\200\000\000\000\340 \000\000\0170 0\237p\334"
 2399      80000000 
 2399      E0200000 
 2399      0F302030 
 2399      9F70DC
 2400 00c7 371030C0 		.ascii	"7\0200\300\000\000\000\020\016\003\000\007\030\020\030"
 2400      00000010 
 2400      0E030007 
 2400      181018
 2401 00d6 0700     		.ascii	"\007\000"
 2402 00d8 0000C020 		.ascii	"\000\000\300  \340\300\000\000\000\000\000\200\340\037"
 2402      20E0C000 
 2402      00000000 
 2402      80E01F
 2403 00e7 38E88703 		.ascii	"8\350\207\003\304<\004\000\000\007\017\030\020\020\013"
 2403      C43C0400 
 2403      00070F18 
 2403      10100B
 2404 00f6 070D1010 		.ascii	"\007\015\020\020\010\000"
 2404      0800
 2405 00fc 00808C4C 		.ascii	"\000\200\214L8\000\000\000\000\000\000\000\000\000\000"
 2405      38000000 
 2405      00000000 
 2405      000000
 2406 010b 00000000 		.ascii	"\000\000\000\000\000\000\000\000\000\000\000\000\000"
 2406      00000000 
 2406      00000000 
 2406      00
 2407 0118 00000000 		.ascii	"\000\000\000\000\000\000\000\000"
 2407      00000000 
 2408 0120 00000000 		.ascii	"\000\000\000\000\000\000\200\3400\010\004\000\000\000"
 2408      000080E0 
 2408      30080400 
 2408      0000
 2409 012e 000000FE 		.ascii	"\000\000\000\376\377\001\000\000\000\000\000\000\000"
 2409      FF010000 
 2409      00000000 
 2409      00
 2410 013b 00000003 		.ascii	"\000\000\000\003\017\030 @\000"
 2410      0F182040 
 2410      00
 2411 0144 00040830 		.ascii	"\000\004\0100\340\200\000\000\000\000\000\000\000\000"
 2411      E0800000 
 2411      00000000 
 2411      0000
 2412 0152 000001FF 		.ascii	"\000\000\001\377\376\000\000\000\000\000\000@ \030\017"
 2412      FE000000 
ARM GAS  C:\Users\Lenovo\AppData\Local\Temp\cc6BOKEM.s 			page 59


 2412      00000040 
 2412      20180F
 2413 0161 03000000 		.ascii	"\003\000\000\000\000\000\000"
 2413      000000
 2414 0168 00000000 		.ascii	"\000\000\000\000\000\000\300\000\000\000\000\000\000"
 2414      0000C000 
 2414      00000000 
 2414      00
 2415 0175 4266663C 		.ascii	"Bff<\030\377\030<ffB\000\000\000\000\000\000\003\000"
 2415      18FF183C 
 2415      66664200 
 2415      00000000 
 2415      000300
 2416 0188 00000000 		.ascii	"\000\000\000\000"
 2417 018c 00000000 		.ascii	"\000\000\000\000\000\000\200\000\000\000\000\000\000"
 2417      00008000 
 2417      00000000 
 2417      00
 2418 0199 10101010 		.ascii	"\020\020\020\020\020\377\020\020\020\020\020\000\000"
 2418      10FF1010 
 2418      10101000 
 2418      00
 2419 01a6 00000000 		.ascii	"\000\000\000\000\003\000\000\000\000\000"
 2419      03000000 
 2419      0000
 2420 01b0 00000000 		.ascii	"\000\000\000\000\000\000\000\000\000\000\000\000\000"
 2420      00000000 
 2420      00000000 
 2420      00
 2421 01bd 00000000 		.ascii	"\000\000\000\000\000\000\000\000\000\000\000\000\200"
 2421      00000000 
 2421      00000000 
 2421      80
 2422 01ca 8C4C3800 		.ascii	"\214L8\000\000\000\000\000\000\000"
 2422      00000000 
 2422      0000
 2423 01d4 00000000 		.ascii	"\000\000\000\000\000\000\000\000\000\000\000\000\000"
 2423      00000000 
 2423      00000000 
 2423      00
 2424 01e1 10101010 		.ascii	"\020\020\020\020\020\020\020\020\020\020\000\000\000"
 2424      10101010 
 2424      10100000 
 2424      00
 2425 01ee 00000000 		.ascii	"\000\000\000\000\000\000\000\000\000\000"
 2425      00000000 
 2425      0000
 2426 01f8 00000000 		.ascii	"\000\000\000\000\000\000\000\000\000\000\000\000\000"
 2426      00000000 
 2426      00000000 
 2426      00
 2427 0205 00000000 		.ascii	"\000\000\000\000\000\000\000\000\000\000\000\000\000"
 2427      00000000 
 2427      00000000 
 2427      00
 2428 0212 1C1C1C00 		.ascii	"\034\034\034\000\000\000\000\000\000\000"
 2428      00000000 
ARM GAS  C:\Users\Lenovo\AppData\Local\Temp\cc6BOKEM.s 			page 60


 2428      0000
 2429 021c 00000000 		.ascii	"\000\000\000\000\000\000\000\000\3408\014\000\000\000"
 2429      00000000 
 2429      E0380C00 
 2429      0000
 2430 022a 00008070 		.ascii	"\000\000\200p\034\003\000\000\000\000\000`8\016\001"
 2430      1C030000 
 2430      00000060 
 2430      380E01
 2431 0239 00000000 		.ascii	"\000\000\000\000\000\000\000"
 2431      000000
 2432 0240 000080C0 		.ascii	"\000\000\200\300`  `\300\200\000\000\000\376\377\001"
 2432      60202060 
 2432      C0800000 
 2432      00FEFF01 
 2433 0250 00000000 		.ascii	"\000\000\000\000\001\377\376\000\000\001\007\016\030"
 2433      01FFFE00 
 2433      0001070E 
 2433      18
 2434 025d 1010180E 		.ascii	"\020\020\030\016\007\001\000"
 2434      070100
 2435 0264 00008080 		.ascii	"\000\000\200\200\200\300\340\000\000\000\000\000\000"
 2435      80C0E000 
 2435      00000000 
 2435      00
 2436 0271 00000000 		.ascii	"\000\000\000\000\377\377\000\000\000\000\000\000\000"
 2436      FFFF0000 
 2436      00000000 
 2436      00
 2437 027e 1010101F 		.ascii	"\020\020\020\037\037\020\020\020\000\000"
 2437      1F101010 
 2437      0000
 2438 0288 00804020 		.ascii	"\000\200@    `\300\200\000\000\000\003\003\000\200@"
 2438      20202060 
 2438      C0800000 
 2438      00030300 
 2438      8040
 2439 029a 20381F07 		.ascii	" 8\037\007\000\000\000\034\032\031\030\030\030\030\030"
 2439      0000001C 
 2439      1A191818 
 2439      181818
 2440 02a9 1F0000   		.ascii	"\037\000\000"
 2441 02ac 0080C020 		.ascii	"\000\200\300   `\300\200\000\000\000\000\003\003\000"
 2441      202060C0 
 2441      80000000 
 2441      00030300 
 2442 02bc 1010182F 		.ascii	"\020\020\030/\347\200\000\000\000\007\017\020\020\020"
 2442      E7800000 
 2442      00070F10 
 2442      1010
 2443 02ca 10180F07 		.ascii	"\020\030\017\007\000\000"
 2443      0000
 2444 02d0 00000000 		.ascii	"\000\000\000\000\000\000\300\340\360\000\000\000\000"
 2444      0000C0E0 
 2444      F0000000 
 2444      00
 2445 02dd C0B08886 		.ascii	"\300\260\210\206\201\200\377\377\200\200\000\000\000"
ARM GAS  C:\Users\Lenovo\AppData\Local\Temp\cc6BOKEM.s 			page 61


 2445      8180FFFF 
 2445      80800000 
 2445      00
 2446 02ea 00000010 		.ascii	"\000\000\000\020\020\037\037\020\020\000"
 2446      101F1F10 
 2446      1000
 2447 02f4 0000E060 		.ascii	"\000\000\340```````\000\000\000\000?\020\010\010\010"
 2447      60606060 
 2447      60600000 
 2447      00003F10 
 2447      080808
 2448 0307 18F0E000 		.ascii	"\030\360\340\000\000\000\007\013\020\020\020\020\034"
 2448      0000070B 
 2448      10101010 
 2448      1C
 2449 0314 0F030000 		.ascii	"\017\003\000\000"
 2450 0318 000080C0 		.ascii	"\000\000\200\300@   \340\300\000\000\000\374\377!\020"
 2450      40202020 
 2450      E0C00000 
 2450      00FCFF21 
 2450      10
 2451 0329 08080818 		.ascii	"\010\010\010\030\360\340\000\000\001\007\014\030\020"
 2451      F0E00000 
 2451      01070C18 
 2451      10
 2452 0336 1010080F 		.ascii	"\020\020\010\017\003\000"
 2452      0300
 2453 033c 0000C0E0 		.ascii	"\000\000\300\340`````\340`\000\000\000\003\000\000\000"
 2453      60606060 
 2453      60E06000 
 2453      00000300 
 2453      0000
 2454 034e E0180700 		.ascii	"\340\030\007\000\000\000\000\000\000\000\000\037\037"
 2454      00000000 
 2454      0000001F 
 2454      1F
 2455 035b 00000000 		.ascii	"\000\000\000\000\000"
 2455      00
 2456 0360 0080C060 		.ascii	"\000\200\300`    `\300\200\000\000\207\357,\030\030"
 2456      20202020 
 2456      60C08000 
 2456      0087EF2C 
 2456      1818
 2457 0372 303068CF 		.ascii	"00h\317\203\000\000\007\017\010\020\020\020\020\030"
 2457      83000007 
 2457      0F081010 
 2457      101018
 2458 0381 0F0700   		.ascii	"\017\007\000"
 2459 0384 0000C0C0 		.ascii	"\000\000\300\300    \300\200\000\000\000\037?`@@@ \020"
 2459      20202020 
 2459      C0800000 
 2459      001F3F60 
 2459      40404020 
 2460 0399 FFFE0000 		.ascii	"\377\376\000\000\000\014\034\020\020\020\010\017\003"
 2460      000C1C10 
 2460      1010080F 
 2460      03
ARM GAS  C:\Users\Lenovo\AppData\Local\Temp\cc6BOKEM.s 			page 62


 2461 03a6 0000     		.ascii	"\000\000"
 2462 03a8 00000000 		.ascii	"\000\000\000\000\000\000\000\000\000\000\000\000\000"
 2462      00000000 
 2462      00000000 
 2462      00
 2463 03b5 00000000 		.ascii	"\000\000\000\000\016\016\016\000\000\000\000\000\000"
 2463      0E0E0E00 
 2463      00000000 
 2463      00
 2464 03c2 0000001C 		.ascii	"\000\000\000\034\034\034\000\000\000\000"
 2464      1C1C0000 
 2464      0000
 2465 03cc 00000000 		.ascii	"\000\000\000\000\000\000\000\000\000\000\000\000\000"
 2465      00000000 
 2465      00000000 
 2465      00
 2466 03d9 00000000 		.ascii	"\000\000\000\000\014\014\000\000\000\000\000\000\000"
 2466      0C0C0000 
 2466      00000000 
 2466      00
 2467 03e6 00000058 		.ascii	"\000\000\000X8\000\000\000\000\000"
 2467      38000000 
 2467      0000
 2468 03f0 00000000 		.ascii	"\000\000\000\000\000\000\000\200@ \020\000\000\000\020"
 2468      00000080 
 2468      40201000 
 2468      000010
 2469 03ff 28448201 		.ascii	"(D\202\001\000\000\000\000\000\000\000\000\000\000\000"
 2469      00000000 
 2469      00000000 
 2469      000000
 2470 040e 01020408 		.ascii	"\001\002\004\010\020\000"
 2470      1000
 2471 0414 00000000 		.ascii	"\000\000\000\000\000\000\000\000\000\000\000\000\000"
 2471      00000000 
 2471      00000000 
 2471      00
 2472 0421 84848484 		.ascii	"\204\204\204\204\204\204\204\204\204\204\000\000\000"
 2472      84848484 
 2472      84840000 
 2472      00
 2473 042e 00000000 		.ascii	"\000\000\000\000\000\000\000\000\000\000"
 2473      00000000 
 2473      0000
 2474 0438 00001020 		.ascii	"\000\000\020 @\200\000\000\000\000\000\000\000\000\000"
 2474      40800000 
 2474      00000000 
 2474      000000
 2475 0447 00000001 		.ascii	"\000\000\000\001\202D(\020\000\000\000\020\010\004\002"
 2475      82442810 
 2475      00000010 
 2475      080402
 2476 0456 01000000 		.ascii	"\001\000\000\000\000\000"
 2476      0000
 2477 045c 00C02020 		.ascii	"\000\300  \020\020\020\0200\340\300\000\000\003\003"
 2477      10101010 
 2477      30E0C000 
ARM GAS  C:\Users\Lenovo\AppData\Local\Temp\cc6BOKEM.s 			page 63


 2477      000303
 2478 046b 0000F010 		.ascii	"\000\000\360\020\010\014\007\003\000\000\000\000\000"
 2478      080C0703 
 2478      00000000 
 2478      00
 2479 0478 1C1C1C00 		.ascii	"\034\034\034\000\000\000\000\000"
 2479      00000000 
 2480 0480 000000C0 		.ascii	"\000\000\000\300@`   @\300\000\000\374\377\001\360\016"
 2480      40602020 
 2480      2040C000 
 2480      00FCFF01 
 2480      F00E
 2481 0492 03C1FE03 		.ascii	"\003\301\376\003\200\177\000\001\007\016\010\021\021"
 2481      807F0001 
 2481      070E0811 
 2481      11
 2482 049f 10110904 		.ascii	"\020\021\011\004\002"
 2482      02
 2483 04a4 00000000 		.ascii	"\000\000\000\000\200\340\340\000\000\000\000\000\000"
 2483      80E0E000 
 2483      00000000 
 2483      00
 2484 04b1 00807C43 		.ascii	"\000\200|C@G\177\370\200\000\000\020\030\037\020\000"
 2484      40477FF8 
 2484      80000010 
 2484      181F1000 
 2485 04c1 00000013 		.ascii	"\000\000\000\023\037\034\020"
 2485      1F1C10
 2486 04c8 20E0E020 		.ascii	" \340\340    `\300\200\000\000\000\377\377\020\020\020"
 2486      20202060 
 2486      C0800000 
 2486      00FFFF10 
 2486      1010
 2487 04da 10182FE7 		.ascii	"\020\030/\347\200\000\020\037\037\020\020\020\020\020"
 2487      8000101F 
 2487      1F101010 
 2487      1010
 2488 04e8 180F0700 		.ascii	"\030\017\007\000"
 2489 04ec 000080C0 		.ascii	"\000\000\200\300@    `\340\000\000\374\377\001\000\000"
 2489      40202020 
 2489      2060E000 
 2489      00FCFF01 
 2489      0000
 2490 04fe 00000000 		.ascii	"\000\000\000\000\001\000\000\001\007\016\030\020\020"
 2490      01000001 
 2490      070E1810 
 2490      10
 2491 050b 10080403 		.ascii	"\020\010\004\003\000"
 2491      00
 2492 0510 20E0E020 		.ascii	" \340\340    @\300\200\000\000\000\377\377\000\000\000"
 2492      20202040 
 2492      C0800000 
 2492      00FFFF00 
 2492      0000
 2493 0522 000001FF 		.ascii	"\000\000\001\377\376\000\020\037\037\020\020\020\030"
 2493      FE00101F 
 2493      1F101010 
ARM GAS  C:\Users\Lenovo\AppData\Local\Temp\cc6BOKEM.s 			page 64


 2493      18
 2494 052f 080E0701 		.ascii	"\010\016\007\001\000"
 2494      00
 2495 0534 20E0E020 		.ascii	" \340\340      `\200\000\000\377\377\020\020\020\020"
 2495      20202020 
 2495      20608000 
 2495      00FFFF10 
 2495      101010
 2496 0547 7C000000 		.ascii	"|\000\000\000\000\020\037\037\020\020\020\020\020\020"
 2496      00101F1F 
 2496      10101010 
 2496      1010
 2497 0555 180600   		.ascii	"\030\006\000"
 2498 0558 20E0E020 		.ascii	" \340\340     ``\200\000\000\377\377\020\020\020\020"
 2498      20202020 
 2498      60608000 
 2498      00FFFF10 
 2498      101010
 2499 056b 7C000001 		.ascii	"|\000\000\001\000\020\037\037\020\000\000\000\000\000"
 2499      00101F1F 
 2499      10000000 
 2499      0000
 2500 0579 000000   		.ascii	"\000\000\000"
 2501 057c 000080C0 		.ascii	"\000\000\200\300`   @\340\000\000\000\374\377\001\000"
 2501      60202020 
 2501      40E00000 
 2501      00FCFF01 
 2501      00
 2502 058d 004040C0 		.ascii	"\000@@\300\301@@\000\001\007\016\030\020\020\020\017"
 2502      C1404000 
 2502      01070E18 
 2502      1010100F 
 2503 059d 0F0000   		.ascii	"\017\000\000"
 2504 05a0 20E0E020 		.ascii	" \340\340 \000\000\000\000 \340\340 \000\377\377\020"
 2504      00000000 
 2504      20E0E020 
 2504      00FFFF10 
 2505 05b0 10101010 		.ascii	"\020\020\020\020\020\377\377\000\020\037\037\020\000"
 2505      10FFFF00 
 2505      101F1F10 
 2505      00
 2506 05bd 00000010 		.ascii	"\000\000\000\020\037\037\020"
 2506      1F1F10
 2507 05c4 00002020 		.ascii	"\000\000   \340\340   \000\000\000\000\000\000\000\377"
 2507      20E0E020 
 2507      20200000 
 2507      00000000 
 2507      00FF
 2508 05d6 FF000000 		.ascii	"\377\000\000\000\000\000\000\000\020\020\020\037\037"
 2508      00000000 
 2508      1010101F 
 2508      1F
 2509 05e3 10101000 		.ascii	"\020\020\020\000\000"
 2509      00
 2510 05e8 00000000 		.ascii	"\000\000\000\000   \340\340   \000\000\000\000\000\000"
 2510      202020E0 
 2510      E0202020 
ARM GAS  C:\Users\Lenovo\AppData\Local\Temp\cc6BOKEM.s 			page 65


 2510      00000000 
 2510      0000
 2511 05fa 00FFFF00 		.ascii	"\000\377\377\000\000\000\000`\340\200\200\200\300\177"
 2511      00000060 
 2511      E0808080 
 2511      C07F
 2512 0608 3F000000 		.ascii	"?\000\000\000"
 2513 060c 20E0E020 		.ascii	" \340\340 \000\000 \240`  \000\000\377\3770\030|\343"
 2513      000020A0 
 2513      60202000 
 2513      00FFFF30 
 2513      187CE3
 2514 061f C0000000 		.ascii	"\300\000\000\000\000\020\037\037\020\000\000\001\023"
 2514      00101F1F 
 2514      10000001 
 2514      13
 2515 062c 1F1C1810 		.ascii	"\037\034\030\020"
 2516 0630 20E0E020 		.ascii	" \340\340 \000\000\000\000\000\000\000\000\000\377\377"
 2516      00000000 
 2516      00000000 
 2516      00FFFF
 2517 063f 00000000 		.ascii	"\000\000\000\000\000\000\000\000\000\020\037\037\020"
 2517      00000000 
 2517      00101F1F 
 2517      10
 2518 064c 10101010 		.ascii	"\020\020\020\020\020\030\006\000"
 2518      10180600 
 2519 0654 20E0E0E0 		.ascii	" \340\340\340\000\000\000\000\340\340\340 \000\377\001"
 2519      00000000 
 2519      E0E0E020 
 2519      00FF01
 2520 0663 3FFEC0E0 		.ascii	"?\376\300\340\036\001\377\377\000\020\037\020\000\003"
 2520      1E01FFFF 
 2520      00101F10 
 2520      0003
 2521 0671 1F030010 		.ascii	"\037\003\000\020\037\037\020"
 2521      1F1F10
 2522 0678 20E0E0C0 		.ascii	" \340\340\300\000\000\000\000\000 \340 \000\377\000"
 2522      00000000 
 2522      0020E020 
 2522      00FF00
 2523 0687 03071C78 		.ascii	"\003\007\034x\340\200\000\377\000\020\037\020\000\000"
 2523      E08000FF 
 2523      00101F10 
 2523      0000
 2524 0695 00000003 		.ascii	"\000\000\000\003\017\037\000"
 2524      0F1F00
 2525 069c 000080C0 		.ascii	"\000\000\200\300`  `\300\200\000\000\000\376\377\001"
 2525      60202060 
 2525      C0800000 
 2525      00FEFF01 
 2526 06ac 00000000 		.ascii	"\000\000\000\000\000\377\376\000\000\001\007\016\030"
 2526      00FFFE00 
 2526      0001070E 
 2526      18
 2527 06b9 1010180C 		.ascii	"\020\020\030\014\007\001\000"
 2527      070100
ARM GAS  C:\Users\Lenovo\AppData\Local\Temp\cc6BOKEM.s 			page 66


 2528 06c0 20E0E020 		.ascii	" \340\340     `\300\200\000\000\377\377     0\037\017"
 2528      20202020 
 2528      60C08000 
 2528      00FFFF20 
 2528      20202020 
 2529 06d7 00101F1F 		.ascii	"\000\020\037\037\020\000\000\000\000\000\000\000\000"
 2529      10000000 
 2529      00000000 
 2529      00
 2530 06e4 000080C0 		.ascii	"\000\000\200\300`  `\300\200\000\000\000\376\377\001"
 2530      60202060 
 2530      C0800000 
 2530      00FEFF01 
 2531 06f4 00000000 		.ascii	"\000\000\000\000\000\377\376\000\000\001\007\016\021"
 2531      00FFFE00 
 2531      0001070E 
 2531      11
 2532 0701 11133C7C 		.ascii	"\021\023<|g!\000"
 2532      672100
 2533 0708 20E0E020 		.ascii	" \340\340     `\300\200\000\000\377\377\020\0200\360"
 2533      20202020 
 2533      60C08000 
 2533      00FFFF10 
 2533      1030F0
 2534 071b D0080F07 		.ascii	"\320\010\017\007\000\020\037\037\020\000\000\000\003"
 2534      00101F1F 
 2534      10000000 
 2534      03
 2535 0728 0F1C1010 		.ascii	"\017\034\020\020"
 2536 072c 0080C060 		.ascii	"\000\200\300`    @@\340\000\000\007\017\014\030\030"
 2536      20202020 
 2536      4040E000 
 2536      00070F0C 
 2536      1818
 2537 073e 303060E0 		.ascii	"00`\340\201\000\000\037\014\010\020\020\020\020\030"
 2537      8100001F 
 2537      0C081010 
 2537      101018
 2538 074d 0F0700   		.ascii	"\017\007\000"
 2539 0750 80602020 		.ascii	"\200`   \340\340   `\200\001\000\000\000\000\377\377"
 2539      20E0E020 
 2539      20206080 
 2539      01000000 
 2539      00FFFF
 2540 0763 00000000 		.ascii	"\000\000\000\000\001\000\000\000\000\020\037\037\020"
 2540      01000000 
 2540      00101F1F 
 2540      10
 2541 0770 00000000 		.ascii	"\000\000\000\000"
 2542 0774 20E0E020 		.ascii	" \340\340 \000\000\000\000\000 \340 \000\377\377\000"
 2542      00000000 
 2542      0020E020 
 2542      00FFFF00 
 2543 0784 00000000 		.ascii	"\000\000\000\000\000\000\377\000\000\007\017\030\020"
 2543      0000FF00 
 2543      00070F18 
 2543      10
ARM GAS  C:\Users\Lenovo\AppData\Local\Temp\cc6BOKEM.s 			page 67


 2544 0791 10101010 		.ascii	"\020\020\020\020\010\007\000"
 2544      080700
 2545 0798 2060E0E0 		.ascii	" `\340\340 \000\000\000 \340` \000\000\007\177\370\200"
 2545      20000000 
 2545      20E06020 
 2545      0000077F 
 2545      F880
 2546 07aa 00807C03 		.ascii	"\000\200|\003\000\000\000\000\000\000\007\037\034\007"
 2546      00000000 
 2546      0000071F 
 2546      1C07
 2547 07b8 00000000 		.ascii	"\000\000\000\000"
 2548 07bc 20E0E020 		.ascii	" \340\340 \000\340\340 \000 \340 \000\007\377\370\340"
 2548      00E0E020 
 2548      0020E020 
 2548      0007FFF8 
 2548      E0
 2549 07cd 1FFFFCE0 		.ascii	"\037\377\374\340\037\000\000\000\000\003\037\003\000"
 2549      1F000000 
 2549      00031F03 
 2549      00
 2550 07da 011F0300 		.ascii	"\001\037\003\000\000\000"
 2550      0000
 2551 07e0 002060E0 		.ascii	"\000 `\340\240\000\000 \340` \000\000\000\000\003\217"
 2551      A0000020 
 2551      E0602000 
 2551      00000003 
 2551      8F
 2552 07f1 7CF8C601 		.ascii	"|\370\306\001\000\000\000\000\020\030\036\023\000\001"
 2552      00000000 
 2552      10181E13 
 2552      0001
 2553 07ff 171F1810 		.ascii	"\027\037\030\020\000"
 2553      00
 2554 0804 2060E0E0 		.ascii	" `\340\340 \000\000\000 \340` \000\000\001\007>\370"
 2554      20000000 
 2554      20E06020 
 2554      00000107 
 2554      3EF8
 2555 0816 E0180700 		.ascii	"\340\030\007\000\000\000\000\000\000\020\020\037\037"
 2555      00000000 
 2555      0010101F 
 2555      1F
 2556 0823 10100000 		.ascii	"\020\020\000\000\000"
 2556      00
 2557 0828 00806020 		.ascii	"\000\200`    \240\340\340 \000\000\000\000\000\300\360"
 2557      202020A0 
 2557      E0E02000 
 2557      00000000 
 2557      C0F0
 2558 083a 3E0F0300 		.ascii	">\017\003\000\000\000\000\020\034\037\027\020\020\020"
 2558      00000010 
 2558      1C1F1710 
 2558      1010
 2559 0848 10180600 		.ascii	"\020\030\006\000"
 2560 084c 00000000 		.ascii	"\000\000\000\000\000\374\004\004\004\004\004\000\000"
 2560      00FC0404 
ARM GAS  C:\Users\Lenovo\AppData\Local\Temp\cc6BOKEM.s 			page 68


 2560      04040400 
 2560      00
 2561 0859 00000000 		.ascii	"\000\000\000\000\377\000\000\000\000\000\000\000\000"
 2561      FF000000 
 2561      00000000 
 2561      00
 2562 0866 0000007F 		.ascii	"\000\000\000\177@@@@@\000"
 2562      40404040 
 2562      4000
 2563 0870 000010E0 		.ascii	"\000\000\020\340\000\000\000\000\000\000\000\000\000"
 2563      00000000 
 2563      00000000 
 2563      00
 2564 087d 00000003 		.ascii	"\000\000\000\003\034`\200\000\000\000\000\000\000\000"
 2564      1C608000 
 2564      00000000 
 2564      0000
 2565 088b 00000000 		.ascii	"\000\000\000\000\003\014p\200\000"
 2565      030C7080 
 2565      00
 2566 0894 00000404 		.ascii	"\000\000\004\004\004\004\004\374\000\000\000\000\000"
 2566      040404FC 
 2566      00000000 
 2566      00
 2567 08a1 00000000 		.ascii	"\000\000\000\000\000\000\377\000\000\000\000\000\000"
 2567      0000FF00 
 2567      00000000 
 2567      00
 2568 08ae 40404040 		.ascii	"@@@@@\177\000\000\000\000"
 2568      407F0000 
 2568      0000
 2569 08b8 00000010 		.ascii	"\000\000\000\020\010\014\004\014\010\020\000\000\000"
 2569      080C040C 
 2569      08100000 
 2569      00
 2570 08c5 00000000 		.ascii	"\000\000\000\000\000\000\000\000\000\000\000\000\000"
 2570      00000000 
 2570      00000000 
 2570      00
 2571 08d2 00000000 		.ascii	"\000\000\000\000\000\000\000\000\000\000"
 2571      00000000 
 2571      0000
 2572 08dc 00000000 		.ascii	"\000\000\000\000\000\000\000\000\000\000\000\000\000"
 2572      00000000 
 2572      00000000 
 2572      00
 2573 08e9 00000000 		.ascii	"\000\000\000\000\000\000\000\000\000\000\000\200\200"
 2573      00000000 
 2573      00000080 
 2573      80
 2574 08f6 80808080 		.ascii	"\200\200\200\200\200\200\200\200\200\200"
 2574      80808080 
 2574      8080
 2575 0900 00000004 		.ascii	"\000\000\000\004\004\010\010\000\000\000\000\000\000"
 2575      04080800 
 2575      00000000 
 2575      00
ARM GAS  C:\Users\Lenovo\AppData\Local\Temp\cc6BOKEM.s 			page 69


 2576 090d 00000000 		.ascii	"\000\000\000\000\000\000\000\000\000\000\000\000\000"
 2576      00000000 
 2576      00000000 
 2576      00
 2577 091a 00000000 		.ascii	"\000\000\000\000\000\000\000\000\000\000"
 2577      00000000 
 2577      0000
 2578 0924 00000000 		.ascii	"\000\000\000\000\000\000\000\000\000\000\000\000\000"
 2578      00000000 
 2578      00000000 
 2578      00
 2579 0931 0098D844 		.ascii	"\000\230\330Dd$$\374\370\000\000\000\017\037\030\020"
 2579      642424FC 
 2579      F8000000 
 2579      0F1F1810 
 2580 0941 1010081F 		.ascii	"\020\020\010\037\037\020\030"
 2580      1F1018
 2581 0948 0020E0F0 		.ascii	"\000 \340\360\000\000\000\000\000\000\000\000\000\000"
 2581      00000000 
 2581      00000000 
 2581      0000
 2582 0956 FFFF1808 		.ascii	"\377\377\030\010\004\004\014\370\360\000\000\000\037"
 2582      04040CF8 
 2582      F0000000 
 2582      1F
 2583 0963 0F181010 		.ascii	"\017\030\020\020\020\030\017\003\000"
 2583      10180F03 
 2583      00
 2584 096c 00000000 		.ascii	"\000\000\000\000\000\000\000\000\000\000\000\000\000"
 2584      00000000 
 2584      00000000 
 2584      00
 2585 0979 E0F81804 		.ascii	"\340\370\030\004\004\004<8\000\000\000\000\003\017\014"
 2585      04043C38 
 2585      00000000 
 2585      030F0C
 2586 0988 10101010 		.ascii	"\020\020\020\020\010\006\000\000"
 2586      08060000 
 2587 0990 00000000 		.ascii	"\000\000\000\000\000\000\000 \340\360\000\000\000\340"
 2587      00000020 
 2587      E0F00000 
 2587      00E0
 2588 099e F81C0404 		.ascii	"\370\034\004\004\004\010\377\377\000\000\000\003\017"
 2588      0408FFFF 
 2588      00000003 
 2588      0F
 2589 09ab 18101010 		.ascii	"\030\020\020\020\010\037\017\010\000"
 2589      081F0F08 
 2589      00
 2590 09b4 00000000 		.ascii	"\000\000\000\000\000\000\000\000\000\000\000\000\000"
 2590      00000000 
 2590      00000000 
 2590      00
 2591 09c1 00E0F848 		.ascii	"\000\340\370HDDDLxp\000\000\000\003\017\014\030\020"
 2591      4444444C 
 2591      78700000 
 2591      00030F0C 
ARM GAS  C:\Users\Lenovo\AppData\Local\Temp\cc6BOKEM.s 			page 70


 2591      1810
 2592 09d3 10100804 		.ascii	"\020\020\010\004\000"
 2592      00
 2593 09d8 00000000 		.ascii	"\000\000\000\000\200\300`  \340\300\000\000\004\004"
 2593      80C06020 
 2593      20E0C000 
 2593      000404
 2594 09e7 04FFFF04 		.ascii	"\004\377\377\004\004\004\004\000\000\000\000\020\020"
 2594      04040400 
 2594      00000010 
 2594      10
 2595 09f4 1F1F1010 		.ascii	"\037\037\020\020\020\000\000\000"
 2595      10000000 
 2596 09fc 00000000 		.ascii	"\000\000\000\000\000\000\000\000\000\000\000\000\000"
 2596      00000000 
 2596      00000000 
 2596      00
 2597 0a09 0070F88C 		.ascii	"\000p\370\214\004\004\214\370t\004\014\000pv\317\215"
 2597      04048CF8 
 2597      74040C00 
 2597      7076CF8D 
 2598 0a19 8D8D89C8 		.ascii	"\215\215\211\310xp\000"
 2598      787000
 2599 0a20 0020E0F0 		.ascii	"\000 \340\360\000\000\000\000\000\000\000\000\000\000"
 2599      00000000 
 2599      00000000 
 2599      0000
 2600 0a2e FFFF0804 		.ascii	"\377\377\010\004\004\004\374\370\000\000\000\020\037"
 2600      0404FCF8 
 2600      00000010 
 2600      1F
 2601 0a3b 1F100000 		.ascii	"\037\020\000\000\020\037\037\020\000"
 2601      101F1F10 
 2601      00
 2602 0a44 00000000 		.ascii	"\000\000\000\000\000``\000\000\000\000\000\000\000\004"
 2602      00606000 
 2602      00000000 
 2602      000004
 2603 0a53 0404FCFC 		.ascii	"\004\004\374\374\000\000\000\000\000\000\000\020\020"
 2603      00000000 
 2603      00000010 
 2603      10
 2604 0a60 101F1F10 		.ascii	"\020\037\037\020\020\020\000\000"
 2604      10100000 
 2605 0a68 00000000 		.ascii	"\000\000\000\000\000\000\000``\000\000\000\000\000\000"
 2605      00000060 
 2605      60000000 
 2605      000000
 2606 0a77 00040404 		.ascii	"\000\004\004\004\374\374\000\000\000\000\000\300\300"
 2606      FCFC0000 
 2606      000000C0 
 2606      C0
 2607 0a84 8080C07F 		.ascii	"\200\200\300\177?\000\000\000"
 2607      3F000000 
 2608 0a8c 0020E0F0 		.ascii	"\000 \340\360\000\000\000\000\000\000\000\000\000\000"
 2608      00000000 
 2608      00000000 
ARM GAS  C:\Users\Lenovo\AppData\Local\Temp\cc6BOKEM.s 			page 71


 2608      0000
 2609 0a9a FFFF80C0 		.ascii	"\377\377\200\300\364\034\004\004\000\000\000\020\037"
 2609      F41C0404 
 2609      00000010 
 2609      1F
 2610 0aa7 1F110003 		.ascii	"\037\021\000\003\037\034\020\020\000"
 2610      1F1C1010 
 2610      00
 2611 0ab0 00002020 		.ascii	"\000\000   \340\360\000\000\000\000\000\000\000\000"
 2611      20E0F000 
 2611      00000000 
 2611      000000
 2612 0abf 0000FFFF 		.ascii	"\000\000\377\377\000\000\000\000\000\000\000\020\020"
 2612      00000000 
 2612      00000010 
 2612      10
 2613 0acc 101F1F10 		.ascii	"\020\037\037\020\020\020\000\000"
 2613      10100000 
 2614 0ad4 00000000 		.ascii	"\000\000\000\000\000\000\000\000\000\000\000\000\004"
 2614      00000000 
 2614      00000000 
 2614      04
 2615 0ae1 FCFC0804 		.ascii	"\374\374\010\004\374\374\010\004\374\374\000\020\037"
 2615      FCFC0804 
 2615      FCFC0010 
 2615      1F
 2616 0aee 1F10001F 		.ascii	"\037\020\000\037\037\020\000\037\037\020"
 2616      1F10001F 
 2616      1F10
 2617 0af8 00000000 		.ascii	"\000\000\000\000\000\000\000\000\000\000\000\000\000"
 2617      00000000 
 2617      00000000 
 2617      00
 2618 0b05 04FCFC08 		.ascii	"\004\374\374\010\010\004\004\374\370\000\000\000\020"
 2618      080404FC 
 2618      F8000000 
 2618      10
 2619 0b12 1F1F1000 		.ascii	"\037\037\020\000\000\020\037\037\020\000"
 2619      00101F1F 
 2619      1000
 2620 0b1c 00000000 		.ascii	"\000\000\000\000\000\000\000\000\000\000\000\000\000"
 2620      00000000 
 2620      00000000 
 2620      00
 2621 0b29 E0F0180C 		.ascii	"\340\360\030\014\004\004\014\030\360\340\000\000\003"
 2621      04040C18 
 2621      F0E00000 
 2621      03
 2622 0b36 0F0C1010 		.ascii	"\017\014\020\020\020\020\014\017\003\000"
 2622      10100C0F 
 2622      0300
 2623 0b40 00000000 		.ascii	"\000\000\000\000\000\000\000\000\000\000\000\000\000"
 2623      00000000 
 2623      00000000 
 2623      00
 2624 0b4d 04FCFC08 		.ascii	"\004\374\374\010\004\004\004\014\370\360\000\000\200"
 2624      0404040C 
ARM GAS  C:\Users\Lenovo\AppData\Local\Temp\cc6BOKEM.s 			page 72


 2624      F8F00000 
 2624      80
 2625 0b5a FFFF8890 		.ascii	"\377\377\210\220\020\020\034\017\003\000"
 2625      10101C0F 
 2625      0300
 2626 0b64 00000000 		.ascii	"\000\000\000\000\000\000\000\000\000\000\000\000\000"
 2626      00000000 
 2626      00000000 
 2626      00
 2627 0b71 E0F81C04 		.ascii	"\340\370\034\004\004\004\010\370\374\000\000\000\003"
 2627      040408F8 
 2627      FC000000 
 2627      03
 2628 0b7e 0F181010 		.ascii	"\017\030\020\020\220\210\377\377\200\000"
 2628      9088FFFF 
 2628      8000
 2629 0b88 00000000 		.ascii	"\000\000\000\000\000\000\000\000\000\000\000\000\004"
 2629      00000000 
 2629      00000000 
 2629      04
 2630 0b95 0404FCFC 		.ascii	"\004\004\374\374\020\010\004\004\014\014\000\020\020"
 2630      10080404 
 2630      0C0C0010 
 2630      10
 2631 0ba2 101F1F10 		.ascii	"\020\037\037\020\020\020\000\000\000\000"
 2631      10100000 
 2631      0000
 2632 0bac 00000000 		.ascii	"\000\000\000\000\000\000\000\000\000\000\000\000\000"
 2632      00000000 
 2632      00000000 
 2632      00
 2633 0bb9 003078CC 		.ascii	"\0000x\314\304\204\204\204\014\034\000\000\000\036\030"
 2633      C4848484 
 2633      0C1C0000 
 2633      001E18
 2634 0bc8 10101011 		.ascii	"\020\020\020\021\031\017\006\000"
 2634      190F0600 
 2635 0bd0 00000000 		.ascii	"\000\000\000\000\000\300\000\000\000\000\000\000\000"
 2635      00C00000 
 2635      00000000 
 2635      00
 2636 0bdd 040404FF 		.ascii	"\004\004\004\377\377\004\004\004\000\000\000\000\000"
 2636      FF040404 
 2636      00000000 
 2636      00
 2637 0bea 00000F1F 		.ascii	"\000\000\017\037\020\020\020\014\000\000"
 2637      1010100C 
 2637      0000
 2638 0bf4 00000000 		.ascii	"\000\000\000\000\000\000\000\000\000\000\000\000\000"
 2638      00000000 
 2638      00000000 
 2638      00
 2639 0c01 04FCFE00 		.ascii	"\004\374\376\000\000\000\004\374\376\000\000\000\000"
 2639      000004FC 
 2639      FE000000 
 2639      00
 2640 0c0e 0F1F1810 		.ascii	"\017\037\030\020\020\010\037\017\010\000"
ARM GAS  C:\Users\Lenovo\AppData\Local\Temp\cc6BOKEM.s 			page 73


 2640      10081F0F 
 2640      0800
 2641 0c18 00000000 		.ascii	"\000\000\000\000\000\000\000\000\000\000\000\000\000"
 2641      00000000 
 2641      00000000 
 2641      00
 2642 0c25 040C3CFC 		.ascii	"\004\014<\374\304\000\000\304<\014\004\000\000\000\000"
 2642      C40000C4 
 2642      3C0C0400 
 2642      000000
 2643 0c34 010F1E0E 		.ascii	"\001\017\036\016\001\000\000\000"
 2643      01000000 
 2644 0c3c 00000000 		.ascii	"\000\000\000\000\000\000\000\000\000\000\000\000\004"
 2644      00000000 
 2644      00000000 
 2644      04
 2645 0c49 3CFCC400 		.ascii	"<\374\304\000\344|\374\204\200|\004\000\000\007\037"
 2645      E47CFC84 
 2645      807C0400 
 2645      00071F
 2646 0c58 07000007 		.ascii	"\007\000\000\007\037\007\000\000"
 2646      1F070000 
 2647 0c60 00000000 		.ascii	"\000\000\000\000\000\000\000\000\000\000\000\000\000"
 2647      00000000 
 2647      00000000 
 2647      00
 2648 0c6d 04041C7C 		.ascii	"\004\004\034|\344\3004\034\004\004\000\000\020\020\034"
 2648      E4C0341C 
 2648      04040000 
 2648      10101C
 2649 0c7c 1601131F 		.ascii	"\026\001\023\037\034\030\020\000"
 2649      1C181000 
 2650 0c84 00000000 		.ascii	"\000\000\000\000\000\000\000\000\000\000\000\000\000"
 2650      00000000 
 2650      00000000 
 2650      00
 2651 0c91 040C3CFC 		.ascii	"\004\014<\374\304\000\304<\004\004\000\000\000\300\200"
 2651      C400C43C 
 2651      04040000 
 2651      00C080
 2652 0ca0 C1370E01 		.ascii	"\3017\016\001\000\000\000\000"
 2652      00000000 
 2653 0ca8 00000000 		.ascii	"\000\000\000\000\000\000\000\000\000\000\000\000\000"
 2653      00000000 
 2653      00000000 
 2653      00
 2654 0cb5 001C0404 		.ascii	"\000\034\004\004\304\364|\034\004\000\000\000\000\020"
 2654      C4F47C1C 
 2654      04000000 
 2654      0010
 2655 0cc3 1C1F1711 		.ascii	"\034\037\027\021\020\020\030\016\000"
 2655      1010180E 
 2655      00
 2656 0ccc 00000000 		.ascii	"\000\000\000\000\000\000\000\370\014\004\000\000\000"
 2656      000000F8 
 2656      0C040000 
 2656      00
ARM GAS  C:\Users\Lenovo\AppData\Local\Temp\cc6BOKEM.s 			page 74


 2657 0cd9 00000000 		.ascii	"\000\000\000\000\020(\357\000\000\000\000\000\000\000"
 2657      1028EF00 
 2657      00000000 
 2657      0000
 2658 0ce7 00000000 		.ascii	"\000\000\000\000?`@\000\000"
 2658      3F604000 
 2658      00
 2659 0cf0 00000000 		.ascii	"\000\000\000\000\000\000\377\000\000\000\000\000\000"
 2659      0000FF00 
 2659      00000000 
 2659      00
 2660 0cfd 00000000 		.ascii	"\000\000\000\000\000\377\000\000\000\000\000\000\000"
 2660      00FF0000 
 2660      00000000 
 2660      00
 2661 0d0a 00000000 		.ascii	"\000\000\000\000\377\000\000\000\000\000"
 2661      FF000000 
 2661      0000
 2662 0d14 0000040C 		.ascii	"\000\000\004\014\370\000\000\000\000\000\000\000\000"
 2662      F8000000 
 2662      00000000 
 2662      00
 2663 0d21 000000EF 		.ascii	"\000\000\000\357(\020\000\000\000\000\000\000\000@`"
 2663      28100000 
 2663      00000000 
 2663      004060
 2664 0d30 3F000000 		.ascii	"?\000\000\000\000\000\000\000"
 2664      00000000 
 2665 0d38 00180602 		.ascii	"\000\030\006\002\002\004\010\020  0\010\000\000\000"
 2665      02040810 
 2665      20203008 
 2665      000000
 2666 0d47 00000000 		.ascii	"\000\000\000\000\000\000\000\000\000\000\000\000\000"
 2666      00000000 
 2666      00000000 
 2666      00
 2667 0d54 00000000 		.ascii	"\000\000\000\000\000\000\000\000"
 2667      00000000 
 2668              		.section	.rodata.asc2_1608,"a"
 2669              		.align	2
 2672              	asc2_1608:
 2673 0000 00000000 		.ascii	"\000\000\000\000\000\000\000\000\000\000\000\000\000"
 2673      00000000 
 2673      00000000 
 2673      00
 2674 000d 000000   		.ascii	"\000\000\000"
 2675 0010 000000F8 		.ascii	"\000\000\000\370\000\000\000\000\000\000\00030\000\000"
 2675      00000000 
 2675      00000033 
 2675      300000
 2676 001f 00       		.ascii	"\000"
 2677 0020 00100C06 		.ascii	"\000\020\014\006\020\014\006\000\000\000\000\000\000"
 2677      100C0600 
 2677      00000000 
 2677      00
 2678 002d 000000   		.ascii	"\000\000\000"
 2679 0030 40C07840 		.ascii	"@\300x@\300x@\000\004?\004\004?\004\004\000"
ARM GAS  C:\Users\Lenovo\AppData\Local\Temp\cc6BOKEM.s 			page 75


 2679      C0784000 
 2679      043F0404 
 2679      3F040400 
 2680 0040 007088FC 		.ascii	"\000p\210\374\0100\000\000\000\030 \377!\036\000\000"
 2680      08300000 
 2680      001820FF 
 2680      211E0000 
 2681 0050 F008F000 		.ascii	"\360\010\360\000\340\030\000\000\000!\034\003\036!\036"
 2681      E0180000 
 2681      00211C03 
 2681      1E211E
 2682 005f 00       		.ascii	"\000"
 2683 0060 00F00888 		.ascii	"\000\360\010\210p\000\000\000\036!#$\031'!\020"
 2683      70000000 
 2683      1E212324 
 2683      19272110 
 2684 0070 10160E00 		.ascii	"\020\026\016\000\000\000\000\000\000\000\000\000\000"
 2684      00000000 
 2684      00000000 
 2684      00
 2685 007d 000000   		.ascii	"\000\000\000"
 2686 0080 000000E0 		.ascii	"\000\000\000\340\030\004\002\000\000\000\000\007\030"
 2686      18040200 
 2686      00000007 
 2686      18
 2687 008d 204000   		.ascii	" @\000"
 2688 0090 00020418 		.ascii	"\000\002\004\030\340\000\000\000\000@ \030\007\000\000"
 2688      E0000000 
 2688      00402018 
 2688      070000
 2689 009f 00       		.ascii	"\000"
 2690 00a0 404080F0 		.ascii	"@@\200\360\200@@\000\002\002\001\017\001\002\002\000"
 2690      80404000 
 2690      0202010F 
 2690      01020200 
 2691 00b0 000000F0 		.ascii	"\000\000\000\360\000\000\000\000\001\001\001\037\001"
 2691      00000000 
 2691      0101011F 
 2691      01
 2692 00bd 010100   		.ascii	"\001\001\000"
 2693 00c0 00000000 		.ascii	"\000\000\000\000\000\000\000\000\200\260p\000\000\000"
 2693      00000000 
 2693      80B07000 
 2693      0000
 2694 00ce 0000     		.ascii	"\000\000"
 2695 00d0 00000000 		.ascii	"\000\000\000\000\000\000\000\000\000\001\001\001\001"
 2695      00000000 
 2695      00010101 
 2695      01
 2696 00dd 010101   		.ascii	"\001\001\001"
 2697 00e0 00000000 		.ascii	"\000\000\000\000\000\000\000\000\00000\000\000\000\000"
 2697      00000000 
 2697      00303000 
 2697      000000
 2698 00ef 00       		.ascii	"\000"
 2699 00f0 00000000 		.ascii	"\000\000\000\000\200`\030\004\000`\030\006\001\000\000"
 2699      80601804 
ARM GAS  C:\Users\Lenovo\AppData\Local\Temp\cc6BOKEM.s 			page 76


 2699      00601806 
 2699      010000
 2700 00ff 00       		.ascii	"\000"
 2701 0100 00E01008 		.ascii	"\000\340\020\010\010\020\340\000\000\017\020  \020\017"
 2701      0810E000 
 2701      000F1020 
 2701      20100F
 2702 010f 00       		.ascii	"\000"
 2703 0110 001010F8 		.ascii	"\000\020\020\370\000\000\000\000\000  ?  \000\000"
 2703      00000000 
 2703      0020203F 
 2703      20200000 
 2704 0120 00700808 		.ascii	"\000p\010\010\010\210p\000\0000($\"!0\000"
 2704      08887000 
 2704      00302824 
 2704      22213000 
 2705 0130 00300888 		.ascii	"\0000\010\210\210H0\000\000\030   \021\016\000"
 2705      88483000 
 2705      00182020 
 2705      20110E00 
 2706 0140 0000C020 		.ascii	"\000\000\300 \020\370\000\000\000\007\004$$?$\000"
 2706      10F80000 
 2706      00070424 
 2706      243F2400 
 2707 0150 00F80888 		.ascii	"\000\370\010\210\210\010\010\000\000\031!  \021\016"
 2707      88080800 
 2707      00192120 
 2707      20110E
 2708 015f 00       		.ascii	"\000"
 2709 0160 00E01088 		.ascii	"\000\340\020\210\210\030\000\000\000\017\021  \021\016"
 2709      88180000 
 2709      000F1120 
 2709      20110E
 2710 016f 00       		.ascii	"\000"
 2711 0170 00380808 		.ascii	"\0008\010\010\3108\010\000\000\000\000?\000\000\000"
 2711      C8380800 
 2711      0000003F 
 2711      000000
 2712 017f 00       		.ascii	"\000"
 2713 0180 00708808 		.ascii	"\000p\210\010\010\210p\000\000\034\"!!\"\034\000"
 2713      08887000 
 2713      001C2221 
 2713      21221C00 
 2714 0190 00E01008 		.ascii	"\000\340\020\010\010\020\340\000\000\0001\"\"\021\017"
 2714      0810E000 
 2714      00003122 
 2714      22110F
 2715 019f 00       		.ascii	"\000"
 2716 01a0 000000C0 		.ascii	"\000\000\000\300\300\000\000\000\000\000\00000\000\000"
 2716      C0000000 
 2716      00000030 
 2716      300000
 2717 01af 00       		.ascii	"\000"
 2718 01b0 00000080 		.ascii	"\000\000\000\200\000\000\000\000\000\000\200`\000\000"
 2718      00000000 
 2718      00008060 
 2718      0000
ARM GAS  C:\Users\Lenovo\AppData\Local\Temp\cc6BOKEM.s 			page 77


 2719 01be 0000     		.ascii	"\000\000"
 2720 01c0 00008040 		.ascii	"\000\000\200@ \020\010\000\000\001\002\004\010\020 "
 2720      20100800 
 2720      00010204 
 2720      081020
 2721 01cf 00       		.ascii	"\000"
 2722 01d0 40404040 		.ascii	"@@@@@@@\000\004\004\004\004\004\004\004\000"
 2722      40404000 
 2722      04040404 
 2722      04040400 
 2723 01e0 00081020 		.ascii	"\000\010\020 @\200\000\000\000 \020\010\004\002\001"
 2723      40800000 
 2723      00201008 
 2723      040201
 2724 01ef 00       		.ascii	"\000"
 2725 01f0 00704808 		.ascii	"\000pH\010\010\010\360\000\000\000\00006\001\000\000"
 2725      0808F000 
 2725      00000030 
 2725      36010000 
 2726 0200 C030C828 		.ascii	"\3000\310(\350\020\340\000\007\030'$#\024\013\000"
 2726      E810E000 
 2726      07182724 
 2726      23140B00 
 2727 0210 0000C038 		.ascii	"\000\000\3008\340\000\000\000 <#\002\002'8 "
 2727      E0000000 
 2727      203C2302 
 2727      02273820 
 2728 0220 08F88888 		.ascii	"\010\370\210\210\210p\000\000 ?   \021\016\000"
 2728      88700000 
 2728      203F2020 
 2728      20110E00 
 2729 0230 C0300808 		.ascii	"\3000\010\010\010\0108\000\007\030   \020\010\000"
 2729      08083800 
 2729      07182020 
 2729      20100800 
 2730 0240 08F80808 		.ascii	"\010\370\010\010\010\020\340\000 ?   \020\017\000"
 2730      0810E000 
 2730      203F2020 
 2730      20100F00 
 2731 0250 08F88888 		.ascii	"\010\370\210\210\350\010\020\000 ?  # \030\000"
 2731      E8081000 
 2731      203F2020 
 2731      23201800 
 2732 0260 08F88888 		.ascii	"\010\370\210\210\350\010\020\000 ? \000\003\000\000"
 2732      E8081000 
 2732      203F2000 
 2732      030000
 2733 026f 00       		.ascii	"\000"
 2734 0270 C0300808 		.ascii	"\3000\010\010\0108\000\000\007\030  \"\036\002\000"
 2734      08380000 
 2734      07182020 
 2734      221E0200 
 2735 0280 08F80800 		.ascii	"\010\370\010\000\000\010\370\010 ?!\001\001!? "
 2735      0008F808 
 2735      203F2101 
 2735      01213F20 
 2736 0290 000808F8 		.ascii	"\000\010\010\370\010\010\000\000\000  ?  \000\000"
ARM GAS  C:\Users\Lenovo\AppData\Local\Temp\cc6BOKEM.s 			page 78


 2736      08080000 
 2736      0020203F 
 2736      20200000 
 2737 02a0 00000808 		.ascii	"\000\000\010\010\370\010\010\000\300\200\200\200\177"
 2737      F8080800 
 2737      C0808080 
 2737      7F
 2738 02ad 000000   		.ascii	"\000\000\000"
 2739 02b0 08F888C0 		.ascii	"\010\370\210\300(\030\010\000 ? \001&8 \000"
 2739      28180800 
 2739      203F2001 
 2739      26382000 
 2740 02c0 08F80800 		.ascii	"\010\370\010\000\000\000\000\000 ?    0\000"
 2740      00000000 
 2740      203F2020 
 2740      20203000 
 2741 02d0 08F8F800 		.ascii	"\010\370\370\000\370\370\010\000 ?\000?\000? \000"
 2741      F8F80800 
 2741      203F003F 
 2741      003F2000 
 2742 02e0 08F830C0 		.ascii	"\010\3700\300\000\010\370\010 ? \000\007\030?\000"
 2742      0008F808 
 2742      203F2000 
 2742      07183F00 
 2743 02f0 E0100808 		.ascii	"\340\020\010\010\010\020\340\000\017\020   \020\017"
 2743      0810E000 
 2743      0F102020 
 2743      20100F
 2744 02ff 00       		.ascii	"\000"
 2745 0300 08F80808 		.ascii	"\010\370\010\010\010\010\360\000 ?!\001\001\001\000"
 2745      0808F000 
 2745      203F2101 
 2745      010100
 2746 030f 00       		.ascii	"\000"
 2747 0310 E0100808 		.ascii	"\340\020\010\010\010\020\340\000\017\030$$8PO\000"
 2747      0810E000 
 2747      0F182424 
 2747      38504F00 
 2748 0320 08F88888 		.ascii	"\010\370\210\210\210\210p\000 ? \000\003\0140 "
 2748      88887000 
 2748      203F2000 
 2748      030C3020 
 2749 0330 00708808 		.ascii	"\000p\210\010\010\0108\000\0008 !!\"\034\000"
 2749      08083800 
 2749      00382021 
 2749      21221C00 
 2750 0340 180808F8 		.ascii	"\030\010\010\370\010\010\030\000\000\000 ? \000\000"
 2750      08081800 
 2750      0000203F 
 2750      200000
 2751 034f 00       		.ascii	"\000"
 2752 0350 08F80800 		.ascii	"\010\370\010\000\000\010\370\010\000\037    \037\000"
 2752      0008F808 
 2752      001F2020 
 2752      20201F00 
 2753 0360 08788800 		.ascii	"\010x\210\000\000\3108\010\000\000\0078\016\001\000"
 2753      00C83808 
ARM GAS  C:\Users\Lenovo\AppData\Local\Temp\cc6BOKEM.s 			page 79


 2753      00000738 
 2753      0E0100
 2754 036f 00       		.ascii	"\000"
 2755 0370 F80800F8 		.ascii	"\370\010\000\370\000\010\370\000\003<\007\000\007<\003"
 2755      0008F800 
 2755      033C0700 
 2755      073C03
 2756 037f 00       		.ascii	"\000"
 2757 0380 08186880 		.ascii	"\010\030h\200\200h\030\010 0,\003\003,0 "
 2757      80681808 
 2757      20302C03 
 2757      032C3020 
 2758 0390 0838C800 		.ascii	"\0108\310\000\3108\010\000\000\000 ? \000\000\000"
 2758      C8380800 
 2758      0000203F 
 2758      20000000 
 2759 03a0 10080808 		.ascii	"\020\010\010\010\3108\010\000 8&!  \030\000"
 2759      C8380800 
 2759      20382621 
 2759      20201800 
 2760 03b0 000000FE 		.ascii	"\000\000\000\376\002\002\002\000\000\000\000\177@@@"
 2760      02020200 
 2760      0000007F 
 2760      404040
 2761 03bf 00       		.ascii	"\000"
 2762 03c0 000C30C0 		.ascii	"\000\0140\300\000\000\000\000\000\000\000\001\0068\300"
 2762      00000000 
 2762      00000001 
 2762      0638C0
 2763 03cf 00       		.ascii	"\000"
 2764 03d0 00020202 		.ascii	"\000\002\002\002\376\000\000\000\000@@@\177\000\000"
 2764      FE000000 
 2764      00404040 
 2764      7F0000
 2765 03df 00       		.ascii	"\000"
 2766 03e0 00000402 		.ascii	"\000\000\004\002\002\002\004\000\000\000\000\000\000"
 2766      02020400 
 2766      00000000 
 2766      00
 2767 03ed 000000   		.ascii	"\000\000\000"
 2768 03f0 00000000 		.ascii	"\000\000\000\000\000\000\000\000\200\200\200\200\200"
 2768      00000000 
 2768      80808080 
 2768      80
 2769 03fd 808080   		.ascii	"\200\200\200"
 2770 0400 00020204 		.ascii	"\000\002\002\004\000\000\000\000\000\000\000\000\000"
 2770      00000000 
 2770      00000000 
 2770      00
 2771 040d 000000   		.ascii	"\000\000\000"
 2772 0410 00008080 		.ascii	"\000\000\200\200\200\200\000\000\000\031$\"\"\"? "
 2772      80800000 
 2772      00192422 
 2772      22223F20 
 2773 0420 08F80080 		.ascii	"\010\370\000\200\200\000\000\000\000?\021  \021\016"
 2773      80000000 
 2773      003F1120 
ARM GAS  C:\Users\Lenovo\AppData\Local\Temp\cc6BOKEM.s 			page 80


 2773      20110E
 2774 042f 00       		.ascii	"\000"
 2775 0430 00000080 		.ascii	"\000\000\000\200\200\200\000\000\000\016\021   \021"
 2775      80800000 
 2775      000E1120 
 2775      202011
 2776 043f 00       		.ascii	"\000"
 2777 0440 00000080 		.ascii	"\000\000\000\200\200\210\370\000\000\016\021  \020?"
 2777      8088F800 
 2777      000E1120 
 2777      20103F
 2778 044f 20       		.ascii	" "
 2779 0450 00008080 		.ascii	"\000\000\200\200\200\200\000\000\000\037\"\"\"\"\023"
 2779      80800000 
 2779      001F2222 
 2779      222213
 2780 045f 00       		.ascii	"\000"
 2781 0460 008080F0 		.ascii	"\000\200\200\360\210\210\210\030\000  ?  \000\000"
 2781      88888818 
 2781      0020203F 
 2781      20200000 
 2782 0470 00008080 		.ascii	"\000\000\200\200\200\200\200\000\000k\224\224\224\223"
 2782      80808000 
 2782      006B9494 
 2782      9493
 2783 047e 6000     		.ascii	"`\000"
 2784 0480 08F80080 		.ascii	"\010\370\000\200\200\200\000\000 ?!\000\000 ? "
 2784      80800000 
 2784      203F2100 
 2784      00203F20 
 2785 0490 00809898 		.ascii	"\000\200\230\230\000\000\000\000\000  ?  \000\000"
 2785      00000000 
 2785      0020203F 
 2785      20200000 
 2786 04a0 00000080 		.ascii	"\000\000\000\200\230\230\000\000\000\300\200\200\200"
 2786      98980000 
 2786      00C08080 
 2786      80
 2787 04ad 7F0000   		.ascii	"\177\000\000"
 2788 04b0 08F80000 		.ascii	"\010\370\000\000\200\200\200\000 ?$\002-0 \000"
 2788      80808000 
 2788      203F2402 
 2788      2D302000 
 2789 04c0 000808F8 		.ascii	"\000\010\010\370\000\000\000\000\000  ?  \000\000"
 2789      00000000 
 2789      0020203F 
 2789      20200000 
 2790 04d0 80808080 		.ascii	"\200\200\200\200\200\200\200\000 ? \000? \000?"
 2790      80808000 
 2790      203F2000 
 2790      3F20003F 
 2791 04e0 80800080 		.ascii	"\200\200\000\200\200\200\000\000 ?!\000\000 ? "
 2791      80800000 
 2791      203F2100 
 2791      00203F20 
 2792 04f0 00008080 		.ascii	"\000\000\200\200\200\200\000\000\000\037    \037\000"
 2792      80800000 
ARM GAS  C:\Users\Lenovo\AppData\Local\Temp\cc6BOKEM.s 			page 81


 2792      001F2020 
 2792      20201F00 
 2793 0500 80800080 		.ascii	"\200\200\000\200\200\000\000\000\200\377\241  \021\016"
 2793      80000000 
 2793      80FFA120 
 2793      20110E
 2794 050f 00       		.ascii	"\000"
 2795 0510 00000080 		.ascii	"\000\000\000\200\200\200\200\000\000\016\021  \240\377"
 2795      80808000 
 2795      000E1120 
 2795      20A0FF
 2796 051f 80       		.ascii	"\200"
 2797 0520 80808000 		.ascii	"\200\200\200\000\200\200\200\000  ?! \000\001\000"
 2797      80808000 
 2797      20203F21 
 2797      20000100 
 2798 0530 00008080 		.ascii	"\000\000\200\200\200\200\200\000\0003$$$$\031\000"
 2798      80808000 
 2798      00332424 
 2798      24241900 
 2799 0540 008080E0 		.ascii	"\000\200\200\340\200\200\000\000\000\000\000\037  \000"
 2799      80800000 
 2799      0000001F 
 2799      202000
 2800 054f 00       		.ascii	"\000"
 2801 0550 80800000 		.ascii	"\200\200\000\000\000\200\200\000\000\037   \020? "
 2801      00808000 
 2801      001F2020 
 2801      20103F20 
 2802 0560 80808000 		.ascii	"\200\200\200\000\000\200\200\200\000\001\0160\010\006"
 2802      00808080 
 2802      00010E30 
 2802      0806
 2803 056e 0100     		.ascii	"\001\000"
 2804 0570 80800080 		.ascii	"\200\200\000\200\000\200\200\200\0170\014\003\0140\017"
 2804      00808080 
 2804      0F300C03 
 2804      0C300F
 2805 057f 00       		.ascii	"\000"
 2806 0580 00808000 		.ascii	"\000\200\200\000\200\200\200\000\000 1.\0161 \000"
 2806      80808000 
 2806      0020312E 
 2806      0E312000 
 2807 0590 80808000 		.ascii	"\200\200\200\000\000\200\200\200\200\201\216p\030\006"
 2807      00808080 
 2807      80818E70 
 2807      1806
 2808 059e 0100     		.ascii	"\001\000"
 2809 05a0 00808080 		.ascii	"\000\200\200\200\200\200\200\000\000!0,\"!0\000"
 2809      80808000 
 2809      0021302C 
 2809      22213000 
 2810 05b0 00000000 		.ascii	"\000\000\000\000\200|\002\002\000\000\000\000\000?@"
 2810      807C0202 
 2810      00000000 
 2810      003F40
 2811 05bf 40       		.ascii	"@"
ARM GAS  C:\Users\Lenovo\AppData\Local\Temp\cc6BOKEM.s 			page 82


 2812 05c0 00000000 		.ascii	"\000\000\000\000\377\000\000\000\000\000\000\000\377"
 2812      FF000000 
 2812      00000000 
 2812      FF
 2813 05cd 000000   		.ascii	"\000\000\000"
 2814 05d0 0002027C 		.ascii	"\000\002\002|\200\000\000\000\000@@?\000\000\000\000"
 2814      80000000 
 2814      0040403F 
 2814      00000000 
 2815 05e0 00060101 		.ascii	"\000\006\001\001\002\002\004\004\000\000\000\000\000"
 2815      02020404 
 2815      00000000 
 2815      00
 2816 05ed 000000   		.ascii	"\000\000\000"
 2817              		.section	.rodata.asc2_1206,"a"
 2818              		.align	2
 2821              	asc2_1206:
 2822 0000 00000000 		.ascii	"\000\000\000\000\000\000\000\000\000\000\000\000"
 2822      00000000 
 2822      00000000 
 2823 000c 0000FC00 		.ascii	"\000\000\374\000\000\000\000\000\002\000\000\000"
 2823      00000000 
 2823      02000000 
 2824 0018 000C020C 		.ascii	"\000\014\002\014\002\000\000\000\000\000\000\000"
 2824      02000000 
 2824      00000000 
 2825 0024 90D0BCD0 		.ascii	"\220\320\274\320\274\220\000\003\000\003\000\000"
 2825      BC900003 
 2825      00030000 
 2826 0030 1824FE44 		.ascii	"\030$\376D\214\000\003\002\007\002\001\000"
 2826      8C000302 
 2826      07020100 
 2827 003c 1824D8B0 		.ascii	"\030$\330\260L\200\000\003\000\001\002\001"
 2827      4C800003 
 2827      00010201 
 2828 0048 C038E438 		.ascii	"\3008\3448\340\000\001\002\002\001\002\002"
 2828      E0000102 
 2828      02010202 
 2829 0054 08060000 		.ascii	"\010\006\000\000\000\000\000\000\000\000\000\000"
 2829      00000000 
 2829      00000000 
 2830 0060 000000F8 		.ascii	"\000\000\000\370\004\002\000\000\000\001\002\004"
 2830      04020000 
 2830      00010204 
 2831 006c 000204F8 		.ascii	"\000\002\004\370\000\000\000\004\002\001\000\000"
 2831      00000004 
 2831      02010000 
 2832 0078 9060F860 		.ascii	"\220`\370`\220\000\000\000\001\000\000\000"
 2832      90000000 
 2832      01000000 
 2833 0084 2020FC20 		.ascii	"  \374  \000\000\000\001\000\000\000"
 2833      20000000 
 2833      01000000 
 2834 0090 00000000 		.ascii	"\000\000\000\000\000\000\010\006\000\000\000\000"
 2834      00000806 
 2834      00000000 
 2835 009c 20202020 		.ascii	"     \000\000\000\000\000\000\000"
ARM GAS  C:\Users\Lenovo\AppData\Local\Temp\cc6BOKEM.s 			page 83


 2835      20000000 
 2835      00000000 
 2836 00a8 00000000 		.ascii	"\000\000\000\000\000\000\000\002\000\000\000\000"
 2836      00000002 
 2836      00000000 
 2837 00b4 0080601C 		.ascii	"\000\200`\034\002\000\004\003\000\000\000\000"
 2837      02000403 
 2837      00000000 
 2838 00c0 F8040404 		.ascii	"\370\004\004\004\370\000\001\002\002\002\001\000"
 2838      F8000102 
 2838      02020100 
 2839 00cc 0008FC00 		.ascii	"\000\010\374\000\000\000\000\002\003\002\000\000"
 2839      00000002 
 2839      03020000 
 2840 00d8 18844424 		.ascii	"\030\204D$\030\000\003\002\002\002\002\000"
 2840      18000302 
 2840      02020200 
 2841 00e4 08042424 		.ascii	"\010\004$$\330\000\001\002\002\002\001\000"
 2841      D8000102 
 2841      02020100 
 2842 00f0 40B088FC 		.ascii	"@\260\210\374\200\000\000\000\000\003\002\000"
 2842      80000000 
 2842      00030200 
 2843 00fc 3C242424 		.ascii	"<$$$\304\000\001\002\002\002\001\000"
 2843      C4000102 
 2843      02020100 
 2844 0108 F824242C 		.ascii	"\370$$,\300\000\001\002\002\002\001\000"
 2844      C0000102 
 2844      02020100 
 2845 0114 0C04E41C 		.ascii	"\014\004\344\034\004\000\000\000\003\000\000\000"
 2845      04000000 
 2845      03000000 
 2846 0120 D8242424 		.ascii	"\330$$$\330\000\001\002\002\002\001\000"
 2846      D8000102 
 2846      02020100 
 2847 012c 38444444 		.ascii	"8DDD\370\000\000\003\002\002\001\000"
 2847      F8000003 
 2847      02020100 
 2848 0138 00001000 		.ascii	"\000\000\020\000\000\000\000\000\002\000\000\000"
 2848      00000000 
 2848      02000000 
 2849 0144 00002000 		.ascii	"\000\000 \000\000\000\000\000\006\000\000\000"
 2849      00000000 
 2849      06000000 
 2850 0150 00205088 		.ascii	"\000 P\210\004\002\000\000\000\000\001\002"
 2850      04020000 
 2850      00000102 
 2851 015c 90909090 		.ascii	"\220\220\220\220\220\000\000\000\000\000\000\000"
 2851      90000000 
 2851      00000000 
 2852 0168 00020488 		.ascii	"\000\002\004\210P \000\002\001\000\000\000"
 2852      50200002 
 2852      01000000 
 2853 0174 1804C424 		.ascii	"\030\004\304$\030\000\000\000\002\000\000\000"
 2853      18000000 
 2853      02000000 
 2854 0180 F804E494 		.ascii	"\370\004\344\224\370\000\001\002\002\002\002\000"
ARM GAS  C:\Users\Lenovo\AppData\Local\Temp\cc6BOKEM.s 			page 84


 2854      F8000102 
 2854      02020200 
 2855 018c 00E09CF0 		.ascii	"\000\340\234\360\200\000\002\003\000\000\003\002"
 2855      80000203 
 2855      00000302 
 2856 0198 04FC2424 		.ascii	"\004\374$$\330\000\002\003\002\002\001\000"
 2856      D8000203 
 2856      02020100 
 2857 01a4 F8040404 		.ascii	"\370\004\004\004\014\000\001\002\002\002\001\000"
 2857      0C000102 
 2857      02020100 
 2858 01b0 04FC0404 		.ascii	"\004\374\004\004\370\000\002\003\002\002\001\000"
 2858      F8000203 
 2858      02020100 
 2859 01bc 04FC2474 		.ascii	"\004\374$t\014\000\002\003\002\002\003\000"
 2859      0C000203 
 2859      02020300 
 2860 01c8 04FC2474 		.ascii	"\004\374$t\014\000\002\003\002\000\000\000"
 2860      0C000203 
 2860      02000000 
 2861 01d4 F0080444 		.ascii	"\360\010\004D\314@\000\001\002\002\001\000"
 2861      CC400001 
 2861      02020100 
 2862 01e0 04FC2020 		.ascii	"\004\374  \374\004\002\003\000\000\003\002"
 2862      FC040203 
 2862      00000302 
 2863 01ec 0404FC04 		.ascii	"\004\004\374\004\004\000\002\002\003\002\002\000"
 2863      04000202 
 2863      03020200 
 2864 01f8 000404FC 		.ascii	"\000\004\004\374\004\004\006\004\004\003\000\000"
 2864      04040604 
 2864      04030000 
 2865 0204 04FC24D0 		.ascii	"\004\374$\320\014\004\002\003\002\000\003\002"
 2865      0C040203 
 2865      02000302 
 2866 0210 04FC0400 		.ascii	"\004\374\004\000\000\000\002\003\002\002\002\003"
 2866      00000203 
 2866      02020203 
 2867 021c FC3CC03C 		.ascii	"\374<\300<\374\000\003\000\003\000\003\000"
 2867      FC000300 
 2867      03000300 
 2868 0228 04FC30C4 		.ascii	"\004\3740\304\374\004\002\003\002\000\003\000"
 2868      FC040203 
 2868      02000300 
 2869 0234 F8040404 		.ascii	"\370\004\004\004\370\000\001\002\002\002\001\000"
 2869      F8000102 
 2869      02020100 
 2870 0240 04FC2424 		.ascii	"\004\374$$\030\000\002\003\002\000\000\000"
 2870      18000203 
 2870      02000000 
 2871 024c F8848404 		.ascii	"\370\204\204\004\370\000\001\002\002\007\005\000"
 2871      F8000102 
 2871      02070500 
 2872 0258 04FC2464 		.ascii	"\004\374$d\230\000\002\003\002\000\003\002"
 2872      98000203 
 2872      02000302 
 2873 0264 18242444 		.ascii	"\030$$D\214\000\003\002\002\002\001\000"
ARM GAS  C:\Users\Lenovo\AppData\Local\Temp\cc6BOKEM.s 			page 85


 2873      8C000302 
 2873      02020100 
 2874 0270 0C04FC04 		.ascii	"\014\004\374\004\014\000\000\002\003\002\000\000"
 2874      0C000002 
 2874      03020000 
 2875 027c 04FC0000 		.ascii	"\004\374\000\000\374\004\000\001\002\002\001\000"
 2875      FC040001 
 2875      02020100 
 2876 0288 047C80E0 		.ascii	"\004|\200\340\034\004\000\000\003\000\000\000"
 2876      1C040000 
 2876      03000000 
 2877 0294 1CE03CE0 		.ascii	"\034\340<\340\034\000\000\003\000\003\000\000"
 2877      1C000003 
 2877      00030000 
 2878 02a0 049C609C 		.ascii	"\004\234`\234\004\000\002\003\000\003\002\000"
 2878      04000203 
 2878      00030200 
 2879 02ac 041CE01C 		.ascii	"\004\034\340\034\004\000\000\002\003\002\000\000"
 2879      04000002 
 2879      03020000 
 2880 02b8 0C84641C 		.ascii	"\014\204d\034\004\000\002\003\002\002\003\000"
 2880      04000203 
 2880      02020300 
 2881 02c4 0000FE02 		.ascii	"\000\000\376\002\002\000\000\000\007\004\004\000"
 2881      02000000 
 2881      07040400 
 2882 02d0 000E30C0 		.ascii	"\000\0160\300\000\000\000\000\000\001\002\000"
 2882      00000000 
 2882      00010200 
 2883 02dc 000202FE 		.ascii	"\000\002\002\376\000\000\000\004\004\007\000\000"
 2883      00000004 
 2883      04070000 
 2884 02e8 00040204 		.ascii	"\000\004\002\004\000\000\000\000\000\000\000\000"
 2884      00000000 
 2884      00000000 
 2885 02f4 00000000 		.ascii	"\000\000\000\000\000\000\010\010\010\010\010\010"
 2885      00000808 
 2885      08080808 
 2886 0300 00000200 		.ascii	"\000\000\002\000\000\000\000\000\000\000\000\000"
 2886      00000000 
 2886      00000000 
 2887 030c 0040A0A0 		.ascii	"\000@\240\240\300\000\000\001\002\002\003\002"
 2887      C0000001 
 2887      02020302 
 2888 0318 04FC2020 		.ascii	"\004\374  \300\000\000\003\002\002\001\000"
 2888      C0000003 
 2888      02020100 
 2889 0324 00C02020 		.ascii	"\000\300  `\000\000\001\002\002\002\000"
 2889      60000001 
 2889      02020200 
 2890 0330 00C02024 		.ascii	"\000\300 $\374\000\000\001\002\002\003\002"
 2890      FC000001 
 2890      02020302 
 2891 033c 00C0A0A0 		.ascii	"\000\300\240\240\300\000\000\001\002\002\002\000"
 2891      C0000001 
 2891      02020200 
 2892 0348 0020F824 		.ascii	"\000 \370$$\004\000\002\003\002\002\000"
ARM GAS  C:\Users\Lenovo\AppData\Local\Temp\cc6BOKEM.s 			page 86


 2892      24040002 
 2892      03020200 
 2893 0354 0040A0A0 		.ascii	"\000@\240\240` \000\007\012\012\012\004"
 2893      60200007 
 2893      0A0A0A04 
 2894 0360 04FC2020 		.ascii	"\004\374  \300\000\002\003\002\000\003\002"
 2894      C0000203 
 2894      02000302 
 2895 036c 0020E400 		.ascii	"\000 \344\000\000\000\000\002\003\002\000\000"
 2895      00000002 
 2895      03020000 
 2896 0378 000020E4 		.ascii	"\000\000 \344\000\000\010\010\010\007\000\000"
 2896      00000808 
 2896      08070000 
 2897 0384 04FC80E0 		.ascii	"\004\374\200\340  \002\003\002\000\003\002"
 2897      20200203 
 2897      02000302 
 2898 0390 0404FC00 		.ascii	"\004\004\374\000\000\000\002\002\003\002\002\000"
 2898      00000202 
 2898      03020200 
 2899 039c E020E020 		.ascii	"\340 \340 \300\000\003\000\003\000\003\000"
 2899      C0000300 
 2899      03000300 
 2900 03a8 20E02020 		.ascii	" \340  \300\000\002\003\002\000\003\002"
 2900      C0000203 
 2900      02000302 
 2901 03b4 00C02020 		.ascii	"\000\300  \300\000\000\001\002\002\001\000"
 2901      C0000001 
 2901      02020100 
 2902 03c0 20E02020 		.ascii	" \340  \300\000\010\017\012\002\001\000"
 2902      C000080F 
 2902      0A020100 
 2903 03cc 00C02020 		.ascii	"\000\300  \340\000\000\001\002\012\017\010"
 2903      E0000001 
 2903      020A0F08 
 2904 03d8 20E04020 		.ascii	" \340@  \000\002\003\002\000\000\000"
 2904      20000203 
 2904      02000000 
 2905 03e4 0060A0A0 		.ascii	"\000`\240\240 \000\000\002\002\002\003\000"
 2905      20000002 
 2905      02020300 
 2906 03f0 0020F820 		.ascii	"\000 \370 \000\000\000\000\001\002\002\000"
 2906      00000000 
 2906      01020200 
 2907 03fc 20E00020 		.ascii	" \340\000 \340\000\000\001\002\002\003\002"
 2907      E0000001 
 2907      02020302 
 2908 0408 20E02080 		.ascii	" \340 \200` \000\000\003\001\000\000"
 2908      60200000 
 2908      03010000 
 2909 0414 6080E080 		.ascii	"`\200\340\200`\000\000\003\000\003\000\000"
 2909      60000003 
 2909      00030000 
 2910 0420 20608060 		.ascii	" `\200` \000\002\003\000\003\002\000"
 2910      20000203 
 2910      00030200 
 2911 042c 20E02080 		.ascii	" \340 \200` \010\010\007\001\000\000"
ARM GAS  C:\Users\Lenovo\AppData\Local\Temp\cc6BOKEM.s 			page 87


 2911      60200808 
 2911      07010000 
 2912 0438 0020A060 		.ascii	"\000 \240` \000\000\002\003\002\002\000"
 2912      20000002 
 2912      03020200 
 2913 0444 000020DE 		.ascii	"\000\000 \336\002\000\000\000\000\007\004\000"
 2913      02000000 
 2913      00070400 
 2914 0450 000000FF 		.ascii	"\000\000\000\377\000\000\000\000\000\017\000\000"
 2914      00000000 
 2914      000F0000 
 2915 045c 0002DE20 		.ascii	"\000\002\336 \000\000\000\004\007\000\000\000"
 2915      00000004 
 2915      07000000 
 2916 0468 02010204 		.ascii	"\002\001\002\004\004\002\000\000\000\000\000\000"
 2916      04020000 
 2916      00000000 
 2917              		.section	.rodata.asc2_0806,"a"
 2918              		.align	2
 2921              	asc2_0806:
 2922 0000 00000000 		.ascii	"\000\000\000\000\000\000"
 2922      0000
 2923 0006 0000002F 		.ascii	"\000\000\000/\000\000"
 2923      0000
 2924 000c 00000700 		.ascii	"\000\000\007\000\007\000"
 2924      0700
 2925 0012 00147F14 		.ascii	"\000\024\177\024\177\024"
 2925      7F14
 2926 0018 00242A7F 		.ascii	"\000$*\177*\022"
 2926      2A12
 2927 001e 00626408 		.ascii	"\000bd\010\023#"
 2927      1323
 2928 0024 00364955 		.ascii	"\0006IU\"P"
 2928      2250
 2929 002a 00000503 		.ascii	"\000\000\005\003\000\000"
 2929      0000
 2930 0030 00001C22 		.ascii	"\000\000\034\"A\000"
 2930      4100
 2931 0036 00004122 		.ascii	"\000\000A\"\034\000"
 2931      1C00
 2932 003c 0014083E 		.ascii	"\000\024\010>\010\024"
 2932      0814
 2933 0042 0008083E 		.ascii	"\000\010\010>\010\010"
 2933      0808
 2934 0048 000000A0 		.ascii	"\000\000\000\240`\000"
 2934      6000
 2935 004e 00080808 		.ascii	"\000\010\010\010\010\010"
 2935      0808
 2936 0054 00006060 		.ascii	"\000\000``\000\000"
 2936      0000
 2937 005a 00201008 		.ascii	"\000 \020\010\004\002"
 2937      0402
 2938 0060 003E5149 		.ascii	"\000>QIE>"
 2938      453E
 2939 0066 0000427F 		.ascii	"\000\000B\177@\000"
 2939      4000
 2940 006c 00426151 		.ascii	"\000BaQIF"
ARM GAS  C:\Users\Lenovo\AppData\Local\Temp\cc6BOKEM.s 			page 88


 2940      4946
 2941 0072 00214145 		.ascii	"\000!AEK1"
 2941      4B31
 2942 0078 00181412 		.ascii	"\000\030\024\022\177\020"
 2942      7F10
 2943 007e 00274545 		.ascii	"\000'EEE9"
 2943      4539
 2944 0084 003C4A49 		.ascii	"\000<JII0"
 2944      4930
 2945 008a 00017109 		.ascii	"\000\001q\011\005\003"
 2945      0503
 2946 0090 00364949 		.ascii	"\0006III6"
 2946      4936
 2947 0096 00064949 		.ascii	"\000\006II)\036"
 2947      291E
 2948 009c 00003636 		.ascii	"\000\00066\000\000"
 2948      0000
 2949 00a2 00005636 		.ascii	"\000\000V6\000\000"
 2949      0000
 2950 00a8 00081422 		.ascii	"\000\010\024\"A\000"
 2950      4100
 2951 00ae 00141414 		.ascii	"\000\024\024\024\024\024"
 2951      1414
 2952 00b4 00004122 		.ascii	"\000\000A\"\024\010"
 2952      1408
 2953 00ba 00020151 		.ascii	"\000\002\001Q\011\006"
 2953      0906
 2954 00c0 00324959 		.ascii	"\0002IYQ>"
 2954      513E
 2955 00c6 007C1211 		.ascii	"\000|\022\021\022|"
 2955      127C
 2956 00cc 007F4949 		.ascii	"\000\177III6"
 2956      4936
 2957 00d2 003E4141 		.ascii	"\000>AAA\""
 2957      4122
 2958 00d8 007F4141 		.ascii	"\000\177AA\"\034"
 2958      221C
 2959 00de 007F4949 		.ascii	"\000\177IIIA"
 2959      4941
 2960 00e4 007F0909 		.ascii	"\000\177\011\011\011\001"
 2960      0901
 2961 00ea 003E4149 		.ascii	"\000>AIIz"
 2961      497A
 2962 00f0 007F0808 		.ascii	"\000\177\010\010\010\177"
 2962      087F
 2963 00f6 0000417F 		.ascii	"\000\000A\177A\000"
 2963      4100
 2964 00fc 00204041 		.ascii	"\000 @A?\001"
 2964      3F01
 2965 0102 007F0814 		.ascii	"\000\177\010\024\"A"
 2965      2241
 2966 0108 007F4040 		.ascii	"\000\177@@@@"
 2966      4040
 2967 010e 007F020C 		.ascii	"\000\177\002\014\002\177"
 2967      027F
 2968 0114 007F0408 		.ascii	"\000\177\004\010\020\177"
 2968      107F
ARM GAS  C:\Users\Lenovo\AppData\Local\Temp\cc6BOKEM.s 			page 89


 2969 011a 003E4141 		.ascii	"\000>AAA>"
 2969      413E
 2970 0120 007F0909 		.ascii	"\000\177\011\011\011\006"
 2970      0906
 2971 0126 003E4151 		.ascii	"\000>AQ!^"
 2971      215E
 2972 012c 007F0919 		.ascii	"\000\177\011\031)F"
 2972      2946
 2973 0132 00464949 		.ascii	"\000FIII1"
 2973      4931
 2974 0138 0001017F 		.ascii	"\000\001\001\177\001\001"
 2974      0101
 2975 013e 003F4040 		.ascii	"\000?@@@?"
 2975      403F
 2976 0144 001F2040 		.ascii	"\000\037 @ \037"
 2976      201F
 2977 014a 003F4038 		.ascii	"\000?@8@?"
 2977      403F
 2978 0150 00631408 		.ascii	"\000c\024\010\024c"
 2978      1463
 2979 0156 00070870 		.ascii	"\000\007\010p\010\007"
 2979      0807
 2980 015c 00615149 		.ascii	"\000aQIEC"
 2980      4543
 2981 0162 00007F41 		.ascii	"\000\000\177AA\000"
 2981      4100
 2982 0168 00552A55 		.ascii	"\000U*U*U"
 2982      2A55
 2983 016e 00004141 		.ascii	"\000\000AA\177\000"
 2983      7F00
 2984 0174 00040201 		.ascii	"\000\004\002\001\002\004"
 2984      0204
 2985 017a 00404040 		.ascii	"\000@@@@@"
 2985      4040
 2986 0180 00000102 		.ascii	"\000\000\001\002\004\000"
 2986      0400
 2987 0186 00205454 		.ascii	"\000 TTTx"
 2987      5478
 2988 018c 007F4844 		.ascii	"\000\177HDD8"
 2988      4438
 2989 0192 00384444 		.ascii	"\0008DDD "
 2989      4420
 2990 0198 00384444 		.ascii	"\0008DDH\177"
 2990      487F
 2991 019e 00385454 		.ascii	"\0008TTT\030"
 2991      5418
 2992 01a4 00087E09 		.ascii	"\000\010~\011\001\002"
 2992      0102
 2993 01aa 0018A4A4 		.ascii	"\000\030\244\244\244|"
 2993      A47C
 2994 01b0 007F0804 		.ascii	"\000\177\010\004\004x"
 2994      0478
 2995 01b6 0000447D 		.ascii	"\000\000D}@\000"
 2995      4000
 2996 01bc 00408084 		.ascii	"\000@\200\204}\000"
 2996      7D00
 2997 01c2 007F1028 		.ascii	"\000\177\020(D\000"
ARM GAS  C:\Users\Lenovo\AppData\Local\Temp\cc6BOKEM.s 			page 90


 2997      4400
 2998 01c8 0000417F 		.ascii	"\000\000A\177@\000"
 2998      4000
 2999 01ce 007C0418 		.ascii	"\000|\004\030\004x"
 2999      0478
 3000 01d4 007C0804 		.ascii	"\000|\010\004\004x"
 3000      0478
 3001 01da 00384444 		.ascii	"\0008DDD8"
 3001      4438
 3002 01e0 00FC2424 		.ascii	"\000\374$$$\030"
 3002      2418
 3003 01e6 00182424 		.ascii	"\000\030$$\030\374"
 3003      18FC
 3004 01ec 007C0804 		.ascii	"\000|\010\004\004\010"
 3004      0408
 3005 01f2 00485454 		.ascii	"\000HTTT "
 3005      5420
 3006 01f8 00043F44 		.ascii	"\000\004?D@ "
 3006      4020
 3007 01fe 003C4040 		.ascii	"\000<@@ |"
 3007      207C
 3008 0204 001C2040 		.ascii	"\000\034 @ \034"
 3008      201C
 3009 020a 003C4030 		.ascii	"\000<@0@<"
 3009      403C
 3010 0210 00442810 		.ascii	"\000D(\020(D"
 3010      2844
 3011 0216 001CA0A0 		.ascii	"\000\034\240\240\240|"
 3011      A07C
 3012 021c 00446454 		.ascii	"\000DdTLD"
 3012      4C44
 3013 0222 14141414 		.ascii	"\024\024\024\024\024\024"
 3013      1414
 3014              		.text
 3015              	.Letext0:
 3016              		.file 2 "d:\\msys64\\mingw64\\arm-none-eabi\\include\\machine\\_default_types.h"
 3017              		.file 3 "d:\\msys64\\mingw64\\arm-none-eabi\\include\\sys\\_stdint.h"
 3018              		.file 4 "Drivers/CMSIS/Device/ST/STM32F1xx/Include/stm32f103xe.h"
 3019              		.file 5 "Drivers/STM32F1xx_HAL_Driver/Inc/stm32f1xx_hal_def.h"
 3020              		.file 6 "Drivers/STM32F1xx_HAL_Driver/Inc/stm32f1xx_hal_dma.h"
 3021              		.file 7 "Drivers/STM32F1xx_HAL_Driver/Inc/stm32f1xx_hal_i2c.h"
 3022              		.file 8 "BBBOOM/Inc/oled.h"
 3023              		.file 9 "BBBOOM/Inc/oledfont.h"
 3024              		.file 10 "Core/Inc/i2c.h"
ARM GAS  C:\Users\Lenovo\AppData\Local\Temp\cc6BOKEM.s 			page 91

